(lp0
(lp1
(I2
I4
I0
tp2
a(I-2
I2
I0
tp3
a(I0
I1
I0
tp4
a(I-1
I0
I0
tp5
a(I3
I7
I0
tp6
a(I-2
I1
I0
tp7
a(I3
I-1
I0
tp8
a(I3
I6
I1
tp9
a(I0
I4
I0
tp10
a(I1
I6
I1
tp11
a(I-1
I-1
I0
tp12
a(I2
I7
I0
tp13
a(I4
I6
I0
tp14
a(I-1
I6
I0
tp15
a(I1
I5
I0
tp16
a(I0
I7
I0
tp17
a(I-1
I1
I0
tp18
a(I4
I0
I0
tp19
a(I2
I0
I1
tp20
a(I-1
I2
I1
tp21
a(I-2
I4
I0
tp22
a(I0
I3
I0
tp23
a(I0
I0
I1
tp24
a(I3
I1
I1
tp25
a(I1
I1
I0
tp26
a(I0
I2
I0
tp27
a(I2
I-1
I0
tp28
a(I2
I1
I0
tp29
a(I0
I-1
I0
tp30
a(I2
I5
I0
tp31
a(I1
I7
I0
tp32
a(I3
I5
I1
tp33
a(I1
I-1
I0
tp34
a(I4
I5
I0
tp35
a(I2
I6
I1
tp36
a(I4
I2
I0
tp37
a(I3
I4
I1
tp38
a(I0
I5
I1
tp39
a(I1
I0
I0
tp40
a(I4
I7
I0
tp41
a(I-2
I3
I0
tp42
a(I-1
I5
I0
tp43
a(I4
I1
I0
tp44
a(I2
I2
I0
tp45
a(I2
I3
I0
tp46
a(I3
I0
I0
tp47
a(I3
I3
I1
tp48
a(I-1
I3
I1
tp49
a(I4
I3
I0
tp50
a(I1
I4
I0
tp51
a(I-1
I4
I0
tp52
a(I0
I6
I0
tp53
a(I4
I4
I0
tp54
a(I3
I2
I1
tp55
aa(lp56
(I2
I3
I1
tp57
a(I-1
I5
I0
tp58
a(I-2
I6
I0
tp59
a(I2
I5
I1
tp60
a(I3
I1
I0
tp61
a(I3
I0
I0
tp62
a(I-2
I1
I0
tp63
a(I2
I6
I0
tp64
a(I2
I-1
I0
tp65
a(I-1
I-1
I0
tp66
a(I-2
I3
I1
tp67
a(I1
I5
I0
tp68
a(I1
I2
I0
tp69
a(I2
I2
I1
tp70
a(I0
I5
I0
tp71
a(I3
I4
I0
tp72
a(I-1
I7
I0
tp73
a(I0
I1
I0
tp74
a(I-2
I0
I0
tp75
a(I-3
I4
I0
tp76
a(I-1
I1
I1
tp77
a(I2
I7
I0
tp78
a(I-2
I7
I0
tp79
a(I-2
I4
I1
tp80
a(I0
I6
I0
tp81
a(I-1
I4
I0
tp82
a(I-3
I3
I0
tp83
a(I1
I3
I0
tp84
a(I-2
I5
I0
tp85
a(I2
I1
I1
tp86
a(I3
I6
I0
tp87
a(I3
I3
I0
tp88
a(I0
I-1
I0
tp89
a(I2
I4
I1
tp90
a(I-1
I2
I0
tp91
a(I1
I-1
I0
tp92
a(I-3
I2
I0
tp93
a(I1
I6
I1
tp94
a(I-1
I3
I0
tp95
a(I0
I7
I0
tp96
a(I3
I5
I0
tp97
a(I-1
I0
I0
tp98
a(I0
I2
I0
tp99
a(I2
I0
I1
tp100
a(I3
I2
I0
tp101
a(I1
I0
I1
tp102
a(I0
I0
I1
tp103
a(I1
I7
I0
tp104
a(I1
I1
I0
tp105
a(I-2
I2
I0
tp106
a(I3
I-1
I0
tp107
a(I-3
I5
I0
tp108
a(I1
I4
I0
tp109
a(I-1
I6
I1
tp110
aa(lp111
(I1
I2
I1
tp112
a(I1
I5
I1
tp113
a(I1
I0
I1
tp114
a(I1
I7
I0
tp115
a(I-2
I5
I0
tp116
a(I-1
I3
I0
tp117
a(I-1
I0
I0
tp118
a(I0
I2
I1
tp119
a(I2
I2
I1
tp120
a(I1
I-1
I0
tp121
a(I1
I4
I1
tp122
a(I1
I3
I1
tp123
a(I0
I4
I0
tp124
a(I0
I6
I1
tp125
a(I2
I1
I1
tp126
a(I0
I1
I1
tp127
a(I2
I6
I0
tp128
a(I0
I0
I1
tp129
a(I-2
I3
I0
tp130
a(I0
I3
I1
tp131
a(I-1
I7
I0
tp132
a(I3
I5
I0
tp133
a(I3
I4
I0
tp134
a(I3
I1
I0
tp135
a(I-1
I6
I0
tp136
a(I1
I1
I1
tp137
a(I3
I2
I0
tp138
a(I2
I0
I0
tp139
a(I0
I7
I0
tp140
a(I-1
I1
I0
tp141
a(I3
I0
I0
tp142
a(I2
I4
I1
tp143
a(I-1
I4
I1
tp144
a(I2
I5
I0
tp145
a(I0
I5
I1
tp146
a(I0
I-1
I0
tp147
a(I1
I6
I0
tp148
a(I-1
I-1
I0
tp149
a(I-2
I6
I0
tp150
a(I2
I-1
I0
tp151
a(I3
I3
I0
tp152
a(I-2
I4
I0
tp153
a(I2
I3
I1
tp154
a(I-1
I2
I0
tp155
a(I-1
I5
I1
tp156
aa(lp157
(I-1
I5
I0
tp158
a(I0
I4
I1
tp159
a(I2
I6
I0
tp160
a(I-1
I7
I0
tp161
a(I-2
I3
I0
tp162
a(I-1
I3
I0
tp163
a(I3
I2
I0
tp164
a(I3
I6
I0
tp165
a(I2
I4
I1
tp166
a(I0
I6
I1
tp167
a(I0
I0
I1
tp168
a(I0
I7
I0
tp169
a(I3
I3
I0
tp170
a(I2
I7
I0
tp171
a(I-1
I1
I1
tp172
a(I1
I7
I0
tp173
a(I0
I2
I0
tp174
a(I-1
I4
I0
tp175
a(I-1
I2
I1
tp176
a(I0
I3
I1
tp177
a(I2
I3
I1
tp178
a(I-2
I1
I0
tp179
a(I1
I4
I1
tp180
a(I1
I5
I1
tp181
a(I1
I1
I1
tp182
a(I-2
I2
I0
tp183
a(I1
I3
I1
tp184
a(I1
I0
I0
tp185
a(I0
I-1
I0
tp186
a(I2
I2
I1
tp187
a(I-1
I0
I0
tp188
a(I1
I-1
I0
tp189
a(I3
I4
I0
tp190
a(I0
I1
I1
tp191
a(I2
I5
I1
tp192
a(I2
I1
I0
tp193
a(I-2
I0
I0
tp194
a(I0
I5
I1
tp195
a(I2
I0
I0
tp196
a(I1
I2
I1
tp197
a(I-1
I-1
I0
tp198
a(I3
I1
I0
tp199
a(I-1
I6
I0
tp200
a(I1
I6
I1
tp201
a(I3
I5
I0
tp202
aa(lp203
(I2
I5
I1
tp204
a(I3
I3
I1
tp205
a(I-2
I6
I0
tp206
a(I0
I3
I0
tp207
a(I-2
I2
I0
tp208
a(I1
I0
I0
tp209
a(I1
I5
I0
tp210
a(I-1
I-1
I0
tp211
a(I-2
I7
I0
tp212
a(I0
I6
I1
tp213
a(I3
I2
I1
tp214
a(I-2
I3
I0
tp215
a(I-1
I3
I1
tp216
a(I0
I7
I0
tp217
a(I-2
I5
I0
tp218
a(I4
I1
I0
tp219
a(I2
I1
I0
tp220
a(I3
I0
I0
tp221
a(I3
I-1
I0
tp222
a(I2
I-1
I0
tp223
a(I-2
I4
I0
tp224
a(I1
I4
I0
tp225
a(I1
I7
I0
tp226
a(I3
I5
I0
tp227
a(I2
I7
I0
tp228
a(I4
I3
I0
tp229
a(I1
I-1
I0
tp230
a(I0
I5
I0
tp231
a(I2
I2
I0
tp232
a(I2
I6
I0
tp233
a(I-1
I5
I1
tp234
a(I-2
I0
I0
tp235
a(I-2
I1
I0
tp236
a(I-1
I4
I1
tp237
a(I0
I1
I0
tp238
a(I-1
I2
I1
tp239
a(I-1
I7
I0
tp240
a(I4
I4
I0
tp241
a(I0
I2
I0
tp242
a(I-1
I1
I1
tp243
a(I3
I4
I0
tp244
a(I4
I2
I0
tp245
a(I2
I0
I1
tp246
a(I1
I1
I0
tp247
a(I1
I6
I1
tp248
a(I-1
I6
I1
tp249
a(I3
I6
I0
tp250
a(I2
I3
I0
tp251
a(I0
I4
I0
tp252
a(I0
I0
I1
tp253
a(I3
I1
I0
tp254
a(I-1
I0
I0
tp255
a(I2
I4
I0
tp256
a(I0
I-1
I0
tp257
aa(lp258
(I0
I3
I1
tp259
a(I3
I7
I0
tp260
a(I4
I7
I0
tp261
a(I-1
I2
I0
tp262
a(I1
I7
I0
tp263
a(I4
I6
I0
tp264
a(I3
I-1
I0
tp265
a(I0
I-1
I0
tp266
a(I5
I5
I0
tp267
a(I-1
I5
I0
tp268
a(I3
I1
I1
tp269
a(I2
I6
I0
tp270
a(I0
I4
I1
tp271
a(I0
I2
I1
tp272
a(I-1
I0
I0
tp273
a(I-1
I3
I0
tp274
a(I3
I2
I0
tp275
a(I3
I4
I0
tp276
a(I1
I2
I0
tp277
a(I3
I0
I0
tp278
a(I-1
I-1
I0
tp279
a(I5
I3
I0
tp280
a(I1
I-1
I0
tp281
a(I0
I0
I1
tp282
a(I4
I5
I0
tp283
a(I2
I5
I0
tp284
a(I3
I3
I0
tp285
a(I2
I-1
I0
tp286
a(I4
I3
I1
tp287
a(I5
I2
I0
tp288
a(I1
I1
I0
tp289
a(I2
I2
I0
tp290
a(I1
I4
I0
tp291
a(I1
I6
I1
tp292
a(I3
I6
I1
tp293
a(I5
I4
I0
tp294
a(I2
I1
I0
tp295
a(I4
I1
I0
tp296
a(I3
I5
I0
tp297
a(I1
I5
I0
tp298
a(I-1
I4
I0
tp299
a(I4
I2
I0
tp300
a(I-1
I6
I0
tp301
a(I1
I0
I1
tp302
a(I2
I7
I0
tp303
a(I0
I5
I1
tp304
a(I2
I0
I1
tp305
a(I4
I0
I0
tp306
a(I1
I3
I0
tp307
a(I0
I6
I0
tp308
a(I4
I4
I1
tp309
a(I0
I7
I0
tp310
a(I-1
I1
I0
tp311
a(I0
I1
I1
tp312
aa(lp313
(I0
I2
I1
tp314
a(I1
I6
I1
tp315
a(I0
I3
I1
tp316
a(I0
I7
I0
tp317
a(I2
I-1
I0
tp318
a(I-2
I5
I0
tp319
a(I1
I3
I1
tp320
a(I0
I5
I1
tp321
a(I0
I0
I1
tp322
a(I-2
I2
I0
tp323
a(I1
I5
I1
tp324
a(I1
I-1
I0
tp325
a(I3
I5
I0
tp326
a(I-1
I4
I1
tp327
a(I1
I7
I0
tp328
a(I2
I0
I0
tp329
a(I-1
I3
I1
tp330
a(I3
I6
I0
tp331
a(I-1
I0
I0
tp332
a(I2
I5
I1
tp333
a(I1
I1
I1
tp334
a(I2
I2
I0
tp335
a(I-1
I6
I0
tp336
a(I-1
I-1
I0
tp337
a(I2
I6
I0
tp338
a(I1
I4
I0
tp339
a(I2
I7
I0
tp340
a(I-1
I2
I1
tp341
a(I0
I-1
I0
tp342
a(I2
I1
I0
tp343
a(I3
I4
I0
tp344
a(I1
I0
I1
tp345
a(I0
I1
I1
tp346
a(I0
I6
I0
tp347
a(I2
I3
I0
tp348
a(I-2
I0
I0
tp349
a(I3
I3
I0
tp350
a(I-2
I3
I0
tp351
a(I2
I4
I1
tp352
a(I0
I4
I1
tp353
a(I1
I2
I1
tp354
a(I-1
I1
I1
tp355
a(I-1
I5
I0
tp356
a(I-2
I1
I0
tp357
a(I-2
I4
I0
tp358
aa(lp359
(I2
I1
I0
tp360
a(I-3
I6
I0
tp361
a(I-1
I2
I1
tp362
a(I1
I-1
I0
tp363
a(I1
I5
I0
tp364
a(I2
I0
I0
tp365
a(I1
I6
I0
tp366
a(I1
I7
I0
tp367
a(I0
I6
I1
tp368
a(I-1
I-1
I0
tp369
a(I0
I4
I1
tp370
a(I-1
I7
I0
tp371
a(I-1
I4
I1
tp372
a(I-1
I6
I1
tp373
a(I1
I1
I1
tp374
a(I0
I0
I1
tp375
a(I-2
I4
I1
tp376
a(I-2
I2
I1
tp377
a(I-2
I1
I0
tp378
a(I-1
I0
I0
tp379
a(I-2
I6
I0
tp380
a(I-2
I5
I1
tp381
a(I0
I7
I0
tp382
a(I-3
I4
I0
tp383
a(I-2
I3
I1
tp384
a(I-1
I5
I1
tp385
a(I0
I3
I1
tp386
a(I-3
I3
I0
tp387
a(I0
I1
I1
tp388
a(I0
I5
I1
tp389
a(I-3
I5
I0
tp390
a(I-3
I2
I0
tp391
a(I-1
I3
I1
tp392
a(I-2
I7
I0
tp393
a(I0
I-1
I0
tp394
a(I2
I3
I0
tp395
a(I-3
I1
I0
tp396
a(I1
I0
I0
tp397
a(I1
I4
I0
tp398
a(I-1
I1
I1
tp399
a(I1
I2
I1
tp400
a(I1
I3
I0
tp401
a(I-2
I0
I0
tp402
a(I0
I2
I0
tp403
a(I2
I2
I0
tp404
aa(lp405
(I1
I0
I0
tp406
a(I2
I0
I1
tp407
a(I2
I6
I0
tp408
a(I4
I0
I0
tp409
a(I-1
I4
I0
tp410
a(I1
I-1
I0
tp411
a(I3
I0
I0
tp412
a(I3
I-1
I0
tp413
a(I2
I-1
I0
tp414
a(I0
I6
I0
tp415
a(I1
I1
I0
tp416
a(I1
I5
I1
tp417
a(I-2
I3
I0
tp418
a(I-1
I5
I0
tp419
a(I1
I4
I0
tp420
a(I4
I2
I0
tp421
a(I3
I6
I0
tp422
a(I3
I3
I1
tp423
a(I2
I2
I0
tp424
a(I2
I1
I0
tp425
a(I1
I3
I0
tp426
a(I-2
I1
I0
tp427
a(I0
I5
I0
tp428
a(I0
I2
I0
tp429
a(I3
I2
I1
tp430
a(I4
I3
I0
tp431
a(I0
I1
I0
tp432
a(I-1
I3
I0
tp433
a(I3
I1
I1
tp434
a(I3
I4
I1
tp435
a(I-1
I2
I1
tp436
a(I0
I4
I1
tp437
a(I-1
I1
I0
tp438
a(I2
I5
I1
tp439
a(I4
I1
I0
tp440
a(I1
I6
I0
tp441
a(I3
I5
I1
tp442
a(I-1
I0
I0
tp443
a(I4
I5
I0
tp444
a(I0
I-1
I0
tp445
a(I0
I3
I0
tp446
a(I-2
I2
I0
tp447
a(I0
I0
I1
tp448
a(I2
I4
I0
tp449
a(I4
I6
I0
tp450
a(I2
I3
I0
tp451
a(I-1
I-1
I0
tp452
a(I4
I4
I0
tp453
aa(lp454
(I2
I3
I1
tp455
a(I-2
I5
I0
tp456
a(I1
I2
I0
tp457
a(I-2
I2
I0
tp458
a(I3
I-1
I0
tp459
a(I-1
I0
I0
tp460
a(I-2
I1
I0
tp461
a(I-1
I3
I0
tp462
a(I3
I3
I0
tp463
a(I-3
I4
I0
tp464
a(I1
I5
I1
tp465
a(I1
I6
I0
tp466
a(I-1
I6
I0
tp467
a(I0
I2
I0
tp468
a(I-2
I4
I0
tp469
a(I1
I0
I1
tp470
a(I3
I1
I0
tp471
a(I2
I5
I0
tp472
a(I3
I4
I0
tp473
a(I0
I1
I0
tp474
a(I3
I2
I0
tp475
a(I3
I0
I0
tp476
a(I1
I4
I0
tp477
a(I2
I0
I1
tp478
a(I-1
I1
I1
tp479
a(I0
I4
I0
tp480
a(I0
I0
I1
tp481
a(I-2
I0
I0
tp482
a(I2
I2
I1
tp483
a(I2
I-1
I0
tp484
a(I0
I-1
I0
tp485
a(I0
I5
I0
tp486
a(I-1
I-1
I0
tp487
a(I-3
I3
I0
tp488
a(I-3
I2
I0
tp489
a(I1
I1
I0
tp490
a(I-1
I2
I0
tp491
a(I-1
I5
I1
tp492
a(I1
I-1
I0
tp493
a(I-2
I3
I1
tp494
a(I-1
I4
I0
tp495
a(I1
I3
I0
tp496
a(I2
I6
I0
tp497
a(I-2
I6
I0
tp498
a(I2
I1
I1
tp499
a(I3
I5
I0
tp500
a(I2
I4
I1
tp501
a(I0
I6
I0
tp502
aa(lp503
(I0
I2
I1
tp504
a(I-2
I2
I0
tp505
a(I-1
I0
I0
tp506
a(I1
I0
I1
tp507
a(I-1
I3
I1
tp508
a(I-1
I1
I0
tp509
a(I2
I1
I1
tp510
a(I0
I6
I0
tp511
a(I0
I4
I1
tp512
a(I3
I4
I0
tp513
a(I1
I6
I0
tp514
a(I0
I-1
I0
tp515
a(I0
I3
I0
tp516
a(I2
I5
I0
tp517
a(I2
I4
I0
tp518
a(I2
I2
I1
tp519
a(I-2
I5
I0
tp520
a(I-1
I5
I0
tp521
a(I1
I1
I1
tp522
a(I0
I5
I1
tp523
a(I3
I1
I0
tp524
a(I0
I0
I1
tp525
a(I1
I3
I1
tp526
a(I0
I1
I1
tp527
a(I-2
I4
I0
tp528
a(I3
I2
I0
tp529
a(I-2
I3
I0
tp530
a(I3
I3
I0
tp531
a(I1
I2
I1
tp532
a(I2
I-1
I0
tp533
a(I-1
I2
I0
tp534
a(I1
I4
I1
tp535
a(I1
I-1
I0
tp536
a(I-1
I4
I1
tp537
a(I1
I5
I0
tp538
a(I-1
I6
I0
tp539
a(I2
I3
I1
tp540
a(I2
I0
I0
tp541
a(I-1
I-1
I0
tp542
a(I3
I0
I0
tp543
aa(lp544
(I-1
I5
I0
tp545
a(I1
I5
I1
tp546
a(I-2
I3
I0
tp547
a(I1
I-1
I0
tp548
a(I2
I1
I0
tp549
a(I0
I3
I1
tp550
a(I-1
I-1
I0
tp551
a(I-1
I4
I0
tp552
a(I-1
I6
I0
tp553
a(I1
I1
I1
tp554
a(I-1
I3
I0
tp555
a(I0
I1
I1
tp556
a(I3
I1
I0
tp557
a(I2
I6
I0
tp558
a(I0
I6
I0
tp559
a(I0
I-1
I0
tp560
a(I2
I4
I1
tp561
a(I3
I5
I0
tp562
a(I-2
I0
I0
tp563
a(I2
I0
I0
tp564
a(I2
I5
I0
tp565
a(I0
I0
I1
tp566
a(I3
I3
I0
tp567
a(I1
I3
I1
tp568
a(I0
I2
I0
tp569
a(I1
I2
I1
tp570
a(I2
I3
I1
tp571
a(I-1
I1
I1
tp572
a(I-2
I1
I0
tp573
a(I3
I2
I0
tp574
a(I1
I0
I0
tp575
a(I-1
I2
I1
tp576
a(I1
I6
I0
tp577
a(I0
I5
I1
tp578
a(I-1
I0
I0
tp579
a(I1
I4
I1
tp580
a(I-2
I2
I0
tp581
a(I2
I2
I1
tp582
a(I0
I4
I1
tp583
a(I3
I4
I0
tp584
aa(lp585
(I2
I4
I1
tp586
a(I-1
I5
I1
tp587
a(I1
I6
I0
tp588
a(I-2
I2
I0
tp589
a(I1
I0
I0
tp590
a(I3
I4
I0
tp591
a(I-2
I0
I0
tp592
a(I4
I1
I0
tp593
a(I0
I1
I0
tp594
a(I3
I-1
I0
tp595
a(I2
I6
I0
tp596
a(I3
I1
I0
tp597
a(I-2
I6
I0
tp598
a(I0
I4
I0
tp599
a(I-2
I4
I0
tp600
a(I-2
I1
I0
tp601
a(I4
I2
I0
tp602
a(I0
I0
I1
tp603
a(I-2
I5
I0
tp604
a(I-1
I0
I0
tp605
a(I2
I2
I0
tp606
a(I1
I5
I1
tp607
a(I2
I-1
I0
tp608
a(I1
I-1
I0
tp609
a(I1
I4
I0
tp610
a(I1
I3
I0
tp611
a(I3
I2
I1
tp612
a(I4
I3
I0
tp613
a(I3
I0
I0
tp614
a(I-1
I-1
I0
tp615
a(I2
I3
I0
tp616
a(I3
I3
I0
tp617
a(I0
I-1
I0
tp618
a(I-2
I3
I0
tp619
a(I1
I1
I0
tp620
a(I-1
I3
I1
tp621
a(I0
I3
I0
tp622
a(I2
I1
I0
tp623
a(I3
I5
I0
tp624
a(I2
I0
I1
tp625
a(I-1
I1
I1
tp626
a(I-1
I2
I1
tp627
a(I0
I5
I1
tp628
a(I2
I5
I0
tp629
a(I-1
I6
I0
tp630
a(I0
I6
I0
tp631
a(I-1
I4
I1
tp632
a(I0
I2
I0
tp633
aa(lp634
(I3
I5
I1
tp635
a(I4
I1
I0
tp636
a(I1
I-1
I0
tp637
a(I0
I6
I0
tp638
a(I-1
I1
I0
tp639
a(I-1
I2
I0
tp640
a(I1
I1
I0
tp641
a(I0
I0
I1
tp642
a(I5
I3
I0
tp643
a(I1
I6
I0
tp644
a(I-1
I0
I0
tp645
a(I3
I0
I0
tp646
a(I2
I5
I0
tp647
a(I5
I2
I0
tp648
a(I3
I3
I0
tp649
a(I1
I3
I0
tp650
a(I4
I2
I0
tp651
a(I0
I3
I1
tp652
a(I1
I2
I0
tp653
a(I0
I5
I0
tp654
a(I-1
I3
I0
tp655
a(I4
I4
I0
tp656
a(I0
I1
I1
tp657
a(I3
I1
I1
tp658
a(I0
I2
I1
tp659
a(I2
I0
I1
tp660
a(I4
I5
I0
tp661
a(I4
I0
I0
tp662
a(I4
I6
I0
tp663
a(I0
I-1
I0
tp664
a(I1
I0
I1
tp665
a(I2
I-1
I0
tp666
a(I2
I1
I0
tp667
a(I1
I4
I0
tp668
a(I2
I4
I0
tp669
a(I2
I2
I0
tp670
a(I3
I2
I0
tp671
a(I3
I-1
I0
tp672
a(I-1
I-1
I0
tp673
a(I3
I6
I0
tp674
a(I4
I3
I1
tp675
a(I-1
I4
I0
tp676
a(I0
I4
I1
tp677
a(I2
I6
I0
tp678
a(I3
I4
I0
tp679
a(I1
I5
I1
tp680
a(I-1
I5
I0
tp681
a(I5
I4
I0
tp682
aa(lp683
(I-2
I0
I0
tp684
a(I0
I1
I1
tp685
a(I2
I1
I0
tp686
a(I3
I3
I0
tp687
a(I0
I-1
I0
tp688
a(I0
I4
I1
tp689
a(I3
I5
I0
tp690
a(I-1
I4
I0
tp691
a(I-2
I3
I0
tp692
a(I-1
I1
I1
tp693
a(I-1
I0
I0
tp694
a(I-2
I2
I0
tp695
a(I1
I-1
I0
tp696
a(I0
I6
I0
tp697
a(I-1
I-1
I0
tp698
a(I2
I5
I0
tp699
a(I2
I2
I0
tp700
a(I0
I3
I1
tp701
a(I3
I4
I0
tp702
a(I1
I3
I0
tp703
a(I-1
I3
I1
tp704
a(I-2
I4
I0
tp705
a(I2
I6
I0
tp706
a(I-1
I5
I0
tp707
a(I-2
I1
I0
tp708
a(I1
I1
I1
tp709
a(I1
I5
I1
tp710
a(I2
I-1
I0
tp711
a(I0
I2
I1
tp712
a(I0
I0
I1
tp713
a(I0
I5
I0
tp714
a(I3
I2
I0
tp715
a(I2
I4
I1
tp716
a(I2
I3
I1
tp717
a(I-1
I2
I1
tp718
a(I1
I2
I1
tp719
a(I1
I0
I1
tp720
a(I2
I0
I0
tp721
a(I1
I4
I1
tp722
a(I1
I6
I0
tp723
aa(lp724
(I0
I1
I1
tp725
a(I-2
I3
I1
tp726
a(I0
I2
I0
tp727
a(I2
I0
I0
tp728
a(I-2
I2
I1
tp729
a(I-1
I2
I1
tp730
a(I1
I5
I0
tp731
a(I-1
I6
I0
tp732
a(I-1
I0
I0
tp733
a(I2
I2
I0
tp734
a(I-1
I-1
I0
tp735
a(I0
I3
I1
tp736
a(I-2
I0
I0
tp737
a(I-1
I5
I1
tp738
a(I1
I-1
I0
tp739
a(I0
I5
I1
tp740
a(I-2
I5
I0
tp741
a(I-1
I3
I1
tp742
a(I-3
I5
I0
tp743
a(I2
I1
I0
tp744
a(I1
I0
I0
tp745
a(I-1
I1
I1
tp746
a(I-2
I4
I1
tp747
a(I-2
I1
I0
tp748
a(I2
I3
I0
tp749
a(I1
I1
I1
tp750
a(I-3
I1
I0
tp751
a(I1
I6
I0
tp752
a(I-3
I3
I0
tp753
a(I1
I3
I0
tp754
a(I-3
I2
I0
tp755
a(I1
I2
I1
tp756
a(I1
I4
I0
tp757
a(I0
I0
I1
tp758
a(I-3
I4
I0
tp759
a(I0
I4
I1
tp760
a(I0
I6
I0
tp761
a(I-1
I4
I1
tp762
a(I0
I-1
I0
tp763
a(I-2
I6
I0
tp764
aa(lp765
(I-1
I3
I0
tp766
a(I4
I5
I0
tp767
a(I2
I4
I1
tp768
a(I0
I0
I1
tp769
a(I3
I-1
I0
tp770
a(I0
I2
I0
tp771
a(I1
I5
I0
tp772
a(I-1
I1
I0
tp773
a(I0
I1
I0
tp774
a(I4
I3
I0
tp775
a(I3
I1
I1
tp776
a(I-1
I0
I0
tp777
a(I3
I2
I1
tp778
a(I4
I1
I0
tp779
a(I0
I4
I0
tp780
a(I1
I2
I0
tp781
a(I2
I2
I0
tp782
a(I4
I4
I0
tp783
a(I3
I5
I0
tp784
a(I-1
I2
I0
tp785
a(I2
I-1
I0
tp786
a(I1
I-1
I0
tp787
a(I3
I3
I1
tp788
a(I2
I0
I1
tp789
a(I1
I0
I0
tp790
a(I-1
I-1
I0
tp791
a(I1
I4
I1
tp792
a(I2
I3
I0
tp793
a(I1
I3
I0
tp794
a(I1
I1
I0
tp795
a(I3
I0
I0
tp796
a(I2
I1
I0
tp797
a(I0
I-1
I0
tp798
a(I4
I2
I0
tp799
a(I3
I4
I1
tp800
a(I-1
I4
I0
tp801
a(I4
I0
I0
tp802
a(I0
I5
I0
tp803
a(I2
I5
I0
tp804
a(I0
I3
I1
tp805
aa(lp806
(I0
I3
I0
tp807
a(I-2
I4
I0
tp808
a(I0
I-1
I0
tp809
a(I1
I5
I0
tp810
a(I-2
I0
I0
tp811
a(I3
I4
I0
tp812
a(I-1
I0
I0
tp813
a(I-2
I3
I0
tp814
a(I-1
I5
I0
tp815
a(I3
I3
I0
tp816
a(I1
I3
I0
tp817
a(I2
I3
I1
tp818
a(I3
I2
I0
tp819
a(I1
I0
I1
tp820
a(I0
I1
I0
tp821
a(I3
I0
I0
tp822
a(I0
I4
I0
tp823
a(I-1
I3
I0
tp824
a(I1
I-1
I0
tp825
a(I2
I2
I1
tp826
a(I0
I0
I1
tp827
a(I1
I1
I0
tp828
a(I3
I-1
I0
tp829
a(I2
I1
I1
tp830
a(I-2
I1
I0
tp831
a(I3
I1
I0
tp832
a(I1
I2
I0
tp833
a(I-2
I2
I0
tp834
a(I2
I0
I1
tp835
a(I-1
I1
I1
tp836
a(I-2
I5
I0
tp837
a(I2
I4
I0
tp838
a(I0
I5
I0
tp839
a(I2
I-1
I0
tp840
a(I0
I2
I0
tp841
a(I-1
I4
I1
tp842
a(I-1
I-1
I0
tp843
a(I1
I4
I1
tp844
a(I2
I5
I0
tp845
a(I-1
I2
I0
tp846
aa(lp847
(I2
I2
I1
tp848
a(I-1
I4
I0
tp849
a(I0
I2
I0
tp850
a(I-1
I5
I0
tp851
a(I3
I2
I0
tp852
a(I-1
I3
I1
tp853
a(I3
I1
I0
tp854
a(I-2
I1
I0
tp855
a(I0
I3
I1
tp856
a(I-2
I3
I0
tp857
a(I0
I5
I0
tp858
a(I1
I1
I1
tp859
a(I2
I0
I0
tp860
a(I2
I1
I1
tp861
a(I2
I3
I0
tp862
a(I0
I1
I1
tp863
a(I-1
I1
I0
tp864
a(I2
I-1
I0
tp865
a(I0
I4
I1
tp866
a(I1
I0
I1
tp867
a(I-2
I2
I0
tp868
a(I1
I4
I0
tp869
a(I-1
I2
I1
tp870
a(I-1
I-1
I0
tp871
a(I3
I0
I0
tp872
a(I3
I3
I0
tp873
a(I2
I4
I0
tp874
a(I1
I2
I1
tp875
a(I1
I-1
I0
tp876
a(I0
I0
I1
tp877
a(I-1
I0
I0
tp878
a(I1
I3
I1
tp879
a(I0
I-1
I0
tp880
a(I1
I5
I0
tp881
a(I-2
I4
I0
tp882
aa(lp883
(I2
I5
I0
tp884
a(I-2
I1
I0
tp885
a(I2
I1
I0
tp886
a(I-2
I3
I0
tp887
a(I3
I4
I0
tp888
a(I-1
I2
I1
tp889
a(I2
I4
I0
tp890
a(I-2
I0
I0
tp891
a(I0
I2
I0
tp892
a(I1
I0
I0
tp893
a(I1
I4
I1
tp894
a(I2
I0
I0
tp895
a(I0
I3
I1
tp896
a(I-1
I-1
I0
tp897
a(I0
I0
I1
tp898
a(I-1
I5
I0
tp899
a(I-1
I4
I0
tp900
a(I-1
I3
I0
tp901
a(I1
I3
I1
tp902
a(I-2
I2
I0
tp903
a(I1
I2
I1
tp904
a(I3
I1
I0
tp905
a(I2
I2
I1
tp906
a(I3
I3
I0
tp907
a(I0
I-1
I0
tp908
a(I0
I5
I0
tp909
a(I1
I1
I1
tp910
a(I0
I4
I1
tp911
a(I2
I3
I1
tp912
a(I1
I5
I0
tp913
a(I-1
I0
I0
tp914
a(I-1
I1
I1
tp915
a(I3
I2
I0
tp916
a(I1
I-1
I0
tp917
a(I0
I1
I1
tp918
aa(lp919
(I-1
I0
I0
tp920
a(I1
I2
I0
tp921
a(I2
I1
I0
tp922
a(I1
I4
I1
tp923
a(I0
I5
I0
tp924
a(I2
I0
I1
tp925
a(I3
I4
I0
tp926
a(I0
I-1
I0
tp927
a(I2
I-1
I0
tp928
a(I0
I0
I1
tp929
a(I3
I1
I0
tp930
a(I2
I5
I0
tp931
a(I2
I2
I0
tp932
a(I3
I0
I0
tp933
a(I3
I3
I0
tp934
a(I-2
I1
I0
tp935
a(I-1
I5
I0
tp936
a(I0
I3
I0
tp937
a(I2
I4
I0
tp938
a(I-2
I2
I0
tp939
a(I-2
I3
I0
tp940
a(I1
I0
I0
tp941
a(I-2
I5
I0
tp942
a(I0
I1
I0
tp943
a(I-1
I-1
I0
tp944
a(I-1
I4
I1
tp945
a(I1
I-1
I0
tp946
a(I-2
I4
I0
tp947
a(I-1
I2
I1
tp948
a(I1
I5
I0
tp949
a(I-1
I1
I1
tp950
a(I1
I3
I0
tp951
a(I3
I2
I0
tp952
a(I2
I3
I1
tp953
a(I0
I2
I0
tp954
a(I1
I1
I0
tp955
a(I-1
I3
I1
tp956
a(I-2
I0
I0
tp957
a(I0
I4
I1
tp958
a(I3
I-1
I0
tp959
aa(lp960
(I1
I3
I0
tp961
a(I2
I-1
I0
tp962
a(I-1
I0
I0
tp963
a(I-1
I3
I0
tp964
a(I0
I-1
I0
tp965
a(I3
I2
I0
tp966
a(I0
I2
I1
tp967
a(I2
I4
I0
tp968
a(I4
I0
I0
tp969
a(I2
I5
I0
tp970
a(I4
I2
I0
tp971
a(I0
I0
I1
tp972
a(I4
I4
I0
tp973
a(I4
I3
I0
tp974
a(I-1
I2
I0
tp975
a(I1
I5
I0
tp976
a(I1
I2
I0
tp977
a(I-1
I-1
I0
tp978
a(I1
I4
I1
tp979
a(I0
I4
I0
tp980
a(I-1
I1
I0
tp981
a(I4
I5
I0
tp982
a(I1
I1
I0
tp983
a(I3
I1
I1
tp984
a(I2
I0
I1
tp985
a(I3
I5
I0
tp986
a(I3
I-1
I0
tp987
a(I0
I5
I0
tp988
a(I4
I1
I0
tp989
a(I0
I3
I1
tp990
a(I3
I4
I1
tp991
a(I2
I3
I0
tp992
a(I3
I0
I0
tp993
a(I1
I0
I1
tp994
a(I2
I2
I0
tp995
a(I2
I1
I0
tp996
a(I1
I-1
I0
tp997
a(I3
I3
I0
tp998
a(I0
I1
I1
tp999
a(I-1
I4
I0
tp1000
aa(lp1001
(I2
I0
I0
tp1002
a(I0
I5
I0
tp1003
a(I0
I0
I1
tp1004
a(I1
I3
I1
tp1005
a(I3
I4
I0
tp1006
a(I2
I5
I0
tp1007
a(I3
I1
I0
tp1008
a(I1
I4
I1
tp1009
a(I2
I3
I1
tp1010
a(I2
I-1
I0
tp1011
a(I-1
I1
I1
tp1012
a(I-1
I3
I0
tp1013
a(I1
I0
I1
tp1014
a(I0
I-1
I0
tp1015
a(I-2
I2
I0
tp1016
a(I-1
I-1
I0
tp1017
a(I0
I1
I1
tp1018
a(I2
I1
I0
tp1019
a(I0
I3
I1
tp1020
a(I-2
I0
I0
tp1021
a(I-2
I3
I0
tp1022
a(I3
I2
I0
tp1023
a(I-1
I0
I0
tp1024
a(I-1
I4
I0
tp1025
a(I-1
I2
I1
tp1026
a(I2
I2
I1
tp1027
a(I2
I4
I0
tp1028
a(I1
I1
I1
tp1029
a(I-2
I1
I0
tp1030
a(I1
I5
I0
tp1031
a(I1
I2
I0
tp1032
a(I0
I4
I0
tp1033
a(I1
I-1
I0
tp1034
a(I3
I3
I0
tp1035
a(I0
I2
I1
tp1036
aa(lp1037
(I1
I2
I1
tp1038
a(I0
I1
I1
tp1039
a(I-2
I5
I0
tp1040
a(I1
I-1
I0
tp1041
a(I-1
I3
I1
tp1042
a(I1
I5
I0
tp1043
a(I-2
I1
I0
tp1044
a(I0
I0
I1
tp1045
a(I0
I3
I1
tp1046
a(I-3
I4
I0
tp1047
a(I-2
I2
I1
tp1048
a(I1
I0
I0
tp1049
a(I2
I0
I0
tp1050
a(I-1
I1
I1
tp1051
a(I0
I4
I1
tp1052
a(I2
I1
I0
tp1053
a(I-3
I2
I0
tp1054
a(I-3
I3
I0
tp1055
a(I0
I-1
I0
tp1056
a(I-1
I4
I1
tp1057
a(I0
I2
I0
tp1058
a(I-1
I5
I0
tp1059
a(I-3
I1
I0
tp1060
a(I1
I1
I1
tp1061
a(I1
I3
I0
tp1062
a(I-1
I0
I0
tp1063
a(I-2
I3
I1
tp1064
a(I2
I2
I0
tp1065
a(I-2
I4
I0
tp1066
a(I-1
I2
I1
tp1067
a(I1
I4
I0
tp1068
a(I2
I3
I0
tp1069
a(I-2
I0
I0
tp1070
a(I0
I5
I0
tp1071
a(I-1
I-1
I0
tp1072
aa.