(lp0
(I-1
I6
tp1
a(I-2
I5
tp2
a(I-3
I4
tp3
a(I-3
I4
tp4
a(I-3
I4
tp5
a(I-2
I5
tp6
a(I-2
I5
tp7
a(I-3
I4
tp8
a(I-1
I6
tp9
a(I-2
I5
tp10
a(I-3
I4
tp11
a(I-3
I4
tp12
a(I-3
I4
tp13
a(I-2
I5
tp14
a(I-2
I5
tp15
a(I-3
I4
tp16
a(I0
I5
tp17
a(I-1
I4
tp18
a(I-2
I3
tp19
a(I-2
I3
tp20
a(I-2
I3
tp21
a(I-1
I4
tp22
a(I-1
I4
tp23
a(I-2
I3
tp24
a.