(lp0
(I311
I184
I22
tp1
a(I319
I688
I20
tp2
a(I311
I184
I18
tp3
a(I305
I691
I16
tp4
a(I314
I680
I22
tp5
a(I312
I180
I20
tp6
a(I308
I198
I18
tp7
a(I308
I201
I16
tp8
a(I315
I863
I14
tp9
a(I312
I660
I12
tp10
a(I311
I631
I10
tp11
a(I313
I664
I8
tp12
a(I312
I675
I14
tp13
a(I318
I645
I12
tp14
a(I318
I215
I10
tp15
a(I314
I688
I8
tp16
a(I311
I685
I4
tp17
a.