(lp0
(I-95
I226
I21
tp1
a(I-101
I721
I19
tp2
a(I-94
I226
I17
tp3
a(I-89
I718
I23
tp4
a(I-98
I730
I21
tp5
a(I-94
I229
I19
tp6
a(I-91
I212
I17
tp7
a(I-92
I208
I23
tp8
a(I-99
I546
I13
tp9
a(I-94
I748
I11
tp10
a(I-94
I28
I9
tp11
a(I-97
I744
I15
tp12
a(I-96
I734
I13
tp13
a(I-100
I13
I11
tp14
a(I-101
I194
I9
tp15
a(I-98
I720
I15
tp16
a(I-93
I722
I3
tp17
a.