(lp0
(I656
I722
I10
tp1
a(I649
I231
I14
tp2
a(I532
I1119
I14
tp3
a(I532
I1098
I20
tp4
a(I507
I1039
I10
tp5
a(I505
I291
I18
tp6
a(I488
I965
I10
tp7
a(I478
I324
I18
tp8
a(I467
I305
I16
tp9
a(I463
I887
I14
tp10
a(I381
I626
I14
tp11
a(I375
I654
I22
tp12
a(I368
I800
I8
tp13
a(I368
I692
I20
tp14
a(I359
I785
I8
tp15
a(I349
I1124
I16
tp16
a(I347
I703
I14
tp17
a(I341
I717
I20
tp18
a(I317
I580
I22
tp19
a.