(lp0
(I-174
I466
I17
tp1
a(I-179
I444
I19
tp2
a(I-180
I33
I11
tp3
a(I-183
I392
I9
tp4
a(I-191
I42
I3
tp5
a(I-197
I431
I15
tp6
a(I-199
I362
I11
tp7
a(I-202
I476
I17
tp8
a(I-302
I639
I15
tp9
a(I-305
I172
I21
tp10
a(I-307
I622
I11
tp11
a(I-319
I616
I13
tp12
a(I-328
I199
I21
tp13
a(I-331
I208
I21
tp14
a(I-337
I70
I23
tp15
a(I-345
I76
I11
tp16
a(I-466
I689
I15
tp17
a(I-471
I199
I9
tp18
a.