(lp0
(I0
I1
I0
tp1
a(I0
I2
I0
tp2
a(I1
I0
I0
tp3
a(I1
I1
I0
tp4
a(I1
I6
I0
tp5
a(I1
I23
I0
tp6
a(I1
I25
I0
tp7
a(I1
I26
I0
tp8
a(I1
I27
I0
tp9
a(I1
I29
I0
tp10
a(I1
I31
I0
tp11
a(I1
I35
I0
tp12
a(I1
I38
I0
tp13
a(I2
I17
I0
tp14
a(I2
I18
I0
tp15
a(I2
I19
I0
tp16
a(I2
I53
I0
tp17
a(I2
I55
I0
tp18
a(I2
I93
I0
tp19
a(I2
I95
I0
tp20
a(I2
I97
I0
tp21
a(I2
I99
I0
tp22
a(I3
I15
I0
tp23
a(I9
I8
I0
tp24
a(I9
I9
I0
tp25
a(I9
I10
I0
tp26
a(I9
I11
I0
tp27
a(I9
I12
I0
tp28
a(I9
I13
I0
tp29
a(I9
I14
I0
tp30
a(I9
I15
I0
tp31
a(I9
I16
I0
tp32
a(I9
I17
I0
tp33
a(I9
I18
I0
tp34
a(I9
I19
I0
tp35
a(I9
I20
I0
tp36
a(I9
I21
I0
tp37
a(I9
I22
I0
tp38
a(I9
I23
I0
tp39
a(I9
I25
I0
tp40
a(I9
I26
I0
tp41
a(I9
I27
I0
tp42
a(I10
I6
I0
tp43
a(I10
I9
I0
tp44
a(I10
I10
I0
tp45
a(I10
I11
I0
tp46
a(I10
I12
I0
tp47
a(I10
I13
I0
tp48
a(I10
I14
I0
tp49
a(I10
I15
I0
tp50
a(I10
I16
I0
tp51
a(I10
I17
I0
tp52
a(I10
I18
I0
tp53
a(I10
I19
I0
tp54
a(I10
I20
I0
tp55
a(I10
I23
I0
tp56
a(I10
I24
I0
tp57
a(I10
I25
I0
tp58
a(I10
I29
I0
tp59
a(I11
I9
I0
tp60
a(I11
I10
I0
tp61
a(I11
I11
I0
tp62
a(I11
I12
I0
tp63
a(I11
I13
I0
tp64
a(I11
I14
I0
tp65
a(I11
I15
I0
tp66
a(I11
I16
I0
tp67
a(I11
I17
I0
tp68
a(I11
I18
I0
tp69
a(I11
I19
I0
tp70
a(I11
I20
I0
tp71
a(I11
I21
I0
tp72
a(I11
I22
I0
tp73
a(I11
I23
I0
tp74
a(I11
I24
I0
tp75
a(I11
I25
I0
tp76
a(I11
I30
I0
tp77
a(I12
I5
I0
tp78
a(I12
I9
I0
tp79
a(I12
I11
I0
tp80
a(I12
I12
I0
tp81
a(I12
I13
I0
tp82
a(I12
I14
I0
tp83
a(I12
I15
I0
tp84
a(I12
I16
I0
tp85
a(I12
I17
I0
tp86
a(I12
I19
I0
tp87
a(I12
I20
I0
tp88
a(I12
I21
I0
tp89
a(I12
I22
I0
tp90
a(I12
I23
I0
tp91
a(I12
I25
I0
tp92
a(I12
I26
I0
tp93
a(I12
I27
I0
tp94
a(I12
I28
I0
tp95
a(I12
I29
I0
tp96
a(I13
I9
I0
tp97
a(I13
I11
I0
tp98
a(I13
I12
I0
tp99
a(I13
I13
I0
tp100
a(I13
I14
I0
tp101
a(I13
I15
I0
tp102
a(I13
I16
I0
tp103
a(I13
I17
I0
tp104
a(I13
I20
I0
tp105
a(I13
I21
I0
tp106
a(I13
I22
I0
tp107
a(I13
I23
I0
tp108
a(I13
I24
I0
tp109
a(I13
I26
I0
tp110
a(I13
I27
I0
tp111
a(I13
I29
I0
tp112
a(I13
I30
I0
tp113
a(I14
I0
I0
tp114
a(I14
I6
I0
tp115
a(I14
I8
I0
tp116
a(I14
I9
I0
tp117
a(I14
I10
I0
tp118
a(I14
I11
I0
tp119
a(I14
I12
I0
tp120
a(I14
I13
I0
tp121
a(I14
I14
I0
tp122
a(I14
I15
I0
tp123
a(I14
I16
I0
tp124
a(I14
I17
I0
tp125
a(I14
I18
I0
tp126
a(I14
I19
I0
tp127
a(I14
I20
I0
tp128
a(I14
I21
I0
tp129
a(I14
I22
I0
tp130
a(I14
I23
I0
tp131
a(I14
I24
I0
tp132
a(I14
I30
I0
tp133
a(I15
I0
I0
tp134
a(I15
I6
I0
tp135
a(I15
I7
I0
tp136
a(I15
I8
I0
tp137
a(I15
I9
I0
tp138
a(I15
I10
I0
tp139
a(I15
I11
I0
tp140
a(I15
I12
I0
tp141
a(I15
I13
I0
tp142
a(I15
I14
I0
tp143
a(I15
I15
I0
tp144
a(I15
I16
I0
tp145
a(I15
I18
I0
tp146
a(I15
I19
I0
tp147
a(I15
I20
I0
tp148
a(I15
I21
I0
tp149
a(I15
I22
I0
tp150
a(I15
I23
I0
tp151
a(I15
I24
I0
tp152
a(I15
I25
I0
tp153
a(I15
I26
I0
tp154
a(I16
I6
I0
tp155
a(I16
I7
I0
tp156
a(I16
I8
I0
tp157
a(I16
I9
I0
tp158
a(I16
I10
I0
tp159
a(I16
I11
I0
tp160
a(I16
I12
I0
tp161
a(I16
I13
I0
tp162
a(I16
I14
I0
tp163
a(I16
I15
I0
tp164
a(I16
I16
I0
tp165
a(I16
I17
I0
tp166
a(I16
I18
I0
tp167
a(I16
I19
I0
tp168
a(I16
I20
I0
tp169
a(I16
I21
I0
tp170
a(I16
I24
I0
tp171
a(I16
I25
I0
tp172
a(I17
I5
I0
tp173
a(I17
I7
I0
tp174
a(I17
I8
I0
tp175
a(I17
I9
I0
tp176
a(I17
I10
I0
tp177
a(I17
I11
I0
tp178
a(I17
I12
I0
tp179
a(I17
I13
I0
tp180
a(I17
I14
I0
tp181
a(I17
I15
I0
tp182
a(I17
I16
I0
tp183
a(I17
I18
I0
tp184
a(I17
I19
I0
tp185
a(I17
I20
I0
tp186
a(I17
I21
I0
tp187
a(I17
I23
I0
tp188
a(I17
I24
I0
tp189
a(I17
I25
I0
tp190
a(I17
I26
I0
tp191
a(I18
I0
I0
tp192
a(I18
I6
I0
tp193
a(I18
I7
I0
tp194
a(I18
I8
I0
tp195
a(I18
I9
I0
tp196
a(I18
I10
I0
tp197
a(I18
I11
I0
tp198
a(I18
I12
I0
tp199
a(I18
I13
I0
tp200
a(I18
I15
I0
tp201
a(I18
I17
I0
tp202
a(I18
I18
I0
tp203
a(I18
I19
I0
tp204
a(I18
I21
I0
tp205
a(I18
I22
I0
tp206
a(I18
I23
I0
tp207
a(I18
I24
I0
tp208
a(I18
I25
I0
tp209
a(I18
I26
I0
tp210
a(I18
I27
I0
tp211
a(I18
I30
I0
tp212
a(I19
I0
I0
tp213
a(I19
I5
I0
tp214
a(I19
I7
I0
tp215
a(I19
I8
I0
tp216
a(I19
I9
I0
tp217
a(I19
I10
I0
tp218
a(I19
I11
I0
tp219
a(I19
I12
I0
tp220
a(I19
I13
I0
tp221
a(I19
I14
I0
tp222
a(I19
I15
I0
tp223
a(I19
I16
I0
tp224
a(I19
I17
I0
tp225
a(I19
I18
I0
tp226
a(I19
I19
I0
tp227
a(I19
I21
I0
tp228
a(I19
I23
I0
tp229
a(I19
I24
I0
tp230
a(I19
I25
I0
tp231
a(I19
I26
I0
tp232
a(I19
I27
I0
tp233
a(I20
I0
I0
tp234
a(I20
I4
I0
tp235
a(I20
I7
I0
tp236
a(I20
I8
I0
tp237
a(I20
I9
I0
tp238
a(I20
I10
I0
tp239
a(I20
I11
I0
tp240
a(I20
I12
I0
tp241
a(I20
I13
I0
tp242
a(I20
I14
I0
tp243
a(I20
I16
I0
tp244
a(I20
I17
I0
tp245
a(I20
I19
I0
tp246
a(I20
I20
I0
tp247
a(I20
I21
I0
tp248
a(I20
I22
I0
tp249
a(I20
I24
I0
tp250
a(I20
I25
I0
tp251
a(I20
I26
I0
tp252
a(I20
I27
I0
tp253
a(I20
I29
I0
tp254
a(I20
I30
I0
tp255
a(I21
I0
I0
tp256
a(I21
I1
I0
tp257
a(I21
I5
I0
tp258
a(I21
I6
I0
tp259
a(I21
I7
I0
tp260
a(I21
I8
I0
tp261
a(I21
I9
I0
tp262
a(I21
I10
I0
tp263
a(I21
I11
I0
tp264
a(I21
I12
I0
tp265
a(I21
I13
I0
tp266
a(I21
I14
I0
tp267
a(I21
I15
I0
tp268
a(I21
I17
I0
tp269
a(I21
I18
I0
tp270
a(I21
I19
I0
tp271
a(I21
I20
I0
tp272
a(I21
I21
I0
tp273
a(I21
I22
I0
tp274
a(I21
I24
I0
tp275
a(I21
I25
I0
tp276
a(I21
I26
I0
tp277
a(I21
I27
I0
tp278
a(I21
I28
I0
tp279
a(I21
I29
I0
tp280
a(I21
I30
I0
tp281
a(I22
I0
I0
tp282
a(I22
I1
I0
tp283
a(I22
I6
I0
tp284
a(I22
I7
I0
tp285
a(I22
I8
I0
tp286
a(I22
I9
I0
tp287
a(I22
I10
I0
tp288
a(I22
I11
I0
tp289
a(I22
I12
I0
tp290
a(I22
I13
I0
tp291
a(I22
I14
I0
tp292
a(I22
I15
I0
tp293
a(I22
I16
I0
tp294
a(I22
I17
I0
tp295
a(I22
I18
I0
tp296
a(I22
I19
I0
tp297
a(I22
I20
I0
tp298
a(I22
I21
I0
tp299
a(I22
I22
I0
tp300
a(I22
I23
I0
tp301
a(I22
I27
I0
tp302
a(I22
I29
I0
tp303
a(I23
I0
I0
tp304
a(I23
I2
I0
tp305
a(I23
I3
I0
tp306
a(I23
I6
I0
tp307
a(I23
I7
I0
tp308
a(I23
I8
I0
tp309
a(I23
I9
I0
tp310
a(I23
I10
I0
tp311
a(I23
I11
I0
tp312
a(I23
I12
I0
tp313
a(I23
I13
I0
tp314
a(I23
I14
I0
tp315
a(I23
I15
I0
tp316
a(I23
I16
I0
tp317
a(I23
I17
I0
tp318
a(I23
I18
I0
tp319
a(I23
I19
I0
tp320
a(I23
I20
I0
tp321
a(I23
I22
I0
tp322
a(I23
I23
I0
tp323
a(I23
I25
I0
tp324
a(I24
I1
I0
tp325
a(I24
I2
I0
tp326
a(I24
I5
I0
tp327
a(I24
I6
I0
tp328
a(I24
I7
I0
tp329
a(I24
I8
I0
tp330
a(I24
I9
I0
tp331
a(I24
I10
I0
tp332
a(I24
I11
I0
tp333
a(I24
I12
I0
tp334
a(I24
I13
I0
tp335
a(I24
I14
I0
tp336
a(I25
I1
I0
tp337
a(I25
I7
I0
tp338
a(I25
I8
I0
tp339
a(I25
I9
I0
tp340
a(I25
I10
I0
tp341
a(I25
I11
I0
tp342
a(I25
I12
I0
tp343
a(I25
I13
I0
tp344
a(I25
I14
I0
tp345
a(I26
I0
I0
tp346
a(I26
I5
I0
tp347
a(I26
I6
I0
tp348
a(I26
I7
I0
tp349
a(I26
I8
I0
tp350
a(I26
I9
I0
tp351
a(I26
I10
I0
tp352
a(I26
I11
I0
tp353
a(I26
I13
I0
tp354
a(I27
I1
I0
tp355
a(I27
I3
I0
tp356
a(I27
I5
I0
tp357
a(I27
I6
I0
tp358
a(I27
I8
I0
tp359
a(I27
I10
I0
tp360
a(I27
I11
I0
tp361
a(I27
I12
I0
tp362
a(I28
I4
I0
tp363
a(I28
I5
I0
tp364
a(I28
I7
I0
tp365
a(I28
I10
I0
tp366
a(I28
I11
I0
tp367
a(I29
I4
I0
tp368
a(I29
I5
I0
tp369
a(I29
I6
I0
tp370
a(I29
I7
I0
tp371
a(I29
I8
I0
tp372
a(I29
I9
I0
tp373
a(I30
I0
I0
tp374
a(I32
I1
I0
tp375
a(I33
I0
I0
tp376
a(I33
I1
I0
tp377
a(I34
I1
I0
tp378
a(I34
I2
I0
tp379
a(I34
I19
I0
tp380
a(I35
I3
I0
tp381
a(I35
I4
I0
tp382
a(I35
I5
I0
tp383
a(I35
I19
I0
tp384
a(I36
I23
I0
tp385
a(I37
I22
I0
tp386
a(I37
I33
I0
tp387
a(I37
I35
I0
tp388
a(I37
I36
I0
tp389
a(I37
I53
I0
tp390
a(I37
I66
I0
tp391
a(I37
I68
I0
tp392
a(I37
I70
I0
tp393
a(I37
I72
I0
tp394
a(I37
I74
I0
tp395
a(I37
I76
I0
tp396
a(I37
I78
I0
tp397
a(I37
I80
I0
tp398
a(I37
I82
I0
tp399
a(I37
I84
I0
tp400
a(I38
I24
I0
tp401
a(I38
I25
I0
tp402
a(I38
I35
I0
tp403
a(I38
I36
I0
tp404
a(I38
I37
I0
tp405
a(I38
I38
I0
tp406
a(I38
I39
I0
tp407
a(I38
I55
I0
tp408
a(I38
I57
I0
tp409
a(I39
I35
I0
tp410
a(I40
I37
I0
tp411
a(I40
I38
I0
tp412
a(I0
I24
I1
tp413
a(I0
I59
I1
tp414
a(I1
I15
I1
tp415
a(I1
I56
I1
tp416
a(I2
I14
I1
tp417
a(I2
I15
I1
tp418
a(I5
I6
I1
tp419
a(I8
I12
I1
tp420
a(I8
I15
I1
tp421
a(I8
I16
I1
tp422
a(I8
I18
I1
tp423
a(I8
I20
I1
tp424
a(I8
I21
I1
tp425
a(I8
I22
I1
tp426
a(I8
I23
I1
tp427
a(I8
I27
I1
tp428
a(I9
I3
I1
tp429
a(I9
I8
I1
tp430
a(I9
I9
I1
tp431
a(I9
I10
I1
tp432
a(I9
I11
I1
tp433
a(I9
I12
I1
tp434
a(I9
I13
I1
tp435
a(I9
I14
I1
tp436
a(I9
I15
I1
tp437
a(I9
I16
I1
tp438
a(I9
I17
I1
tp439
a(I9
I18
I1
tp440
a(I9
I19
I1
tp441
a(I9
I20
I1
tp442
a(I9
I22
I1
tp443
a(I9
I23
I1
tp444
a(I9
I26
I1
tp445
a(I10
I5
I1
tp446
a(I10
I8
I1
tp447
a(I10
I9
I1
tp448
a(I10
I10
I1
tp449
a(I10
I11
I1
tp450
a(I10
I12
I1
tp451
a(I10
I13
I1
tp452
a(I10
I14
I1
tp453
a(I10
I15
I1
tp454
a(I10
I16
I1
tp455
a(I10
I18
I1
tp456
a(I10
I19
I1
tp457
a(I10
I20
I1
tp458
a(I10
I21
I1
tp459
a(I10
I22
I1
tp460
a(I10
I23
I1
tp461
a(I10
I24
I1
tp462
a(I10
I26
I1
tp463
a(I10
I27
I1
tp464
a(I10
I28
I1
tp465
a(I11
I8
I1
tp466
a(I11
I9
I1
tp467
a(I11
I10
I1
tp468
a(I11
I11
I1
tp469
a(I11
I12
I1
tp470
a(I11
I13
I1
tp471
a(I11
I14
I1
tp472
a(I11
I15
I1
tp473
a(I11
I16
I1
tp474
a(I11
I17
I1
tp475
a(I11
I19
I1
tp476
a(I11
I20
I1
tp477
a(I11
I21
I1
tp478
a(I11
I22
I1
tp479
a(I11
I23
I1
tp480
a(I11
I25
I1
tp481
a(I11
I26
I1
tp482
a(I11
I27
I1
tp483
a(I12
I7
I1
tp484
a(I12
I9
I1
tp485
a(I12
I10
I1
tp486
a(I12
I11
I1
tp487
a(I12
I12
I1
tp488
a(I12
I13
I1
tp489
a(I12
I14
I1
tp490
a(I12
I15
I1
tp491
a(I12
I16
I1
tp492
a(I12
I17
I1
tp493
a(I12
I18
I1
tp494
a(I12
I19
I1
tp495
a(I12
I20
I1
tp496
a(I12
I21
I1
tp497
a(I12
I22
I1
tp498
a(I12
I23
I1
tp499
a(I12
I24
I1
tp500
a(I12
I25
I1
tp501
a(I13
I6
I1
tp502
a(I13
I7
I1
tp503
a(I13
I8
I1
tp504
a(I13
I9
I1
tp505
a(I13
I10
I1
tp506
a(I13
I11
I1
tp507
a(I13
I12
I1
tp508
a(I13
I13
I1
tp509
a(I13
I14
I1
tp510
a(I13
I15
I1
tp511
a(I13
I16
I1
tp512
a(I13
I18
I1
tp513
a(I13
I19
I1
tp514
a(I13
I20
I1
tp515
a(I13
I22
I1
tp516
a(I13
I23
I1
tp517
a(I13
I24
I1
tp518
a(I13
I25
I1
tp519
a(I13
I26
I1
tp520
a(I13
I27
I1
tp521
a(I13
I29
I1
tp522
a(I14
I5
I1
tp523
a(I14
I6
I1
tp524
a(I14
I7
I1
tp525
a(I14
I8
I1
tp526
a(I14
I9
I1
tp527
a(I14
I10
I1
tp528
a(I14
I11
I1
tp529
a(I14
I13
I1
tp530
a(I14
I14
I1
tp531
a(I14
I15
I1
tp532
a(I14
I16
I1
tp533
a(I14
I17
I1
tp534
a(I14
I18
I1
tp535
a(I14
I19
I1
tp536
a(I14
I20
I1
tp537
a(I14
I22
I1
tp538
a(I14
I23
I1
tp539
a(I14
I24
I1
tp540
a(I14
I29
I1
tp541
a(I15
I5
I1
tp542
a(I15
I6
I1
tp543
a(I15
I7
I1
tp544
a(I15
I8
I1
tp545
a(I15
I9
I1
tp546
a(I15
I10
I1
tp547
a(I15
I11
I1
tp548
a(I15
I12
I1
tp549
a(I15
I13
I1
tp550
a(I15
I15
I1
tp551
a(I15
I16
I1
tp552
a(I15
I17
I1
tp553
a(I15
I18
I1
tp554
a(I15
I19
I1
tp555
a(I15
I21
I1
tp556
a(I15
I23
I1
tp557
a(I15
I24
I1
tp558
a(I16
I5
I1
tp559
a(I16
I6
I1
tp560
a(I16
I7
I1
tp561
a(I16
I8
I1
tp562
a(I16
I9
I1
tp563
a(I16
I10
I1
tp564
a(I16
I11
I1
tp565
a(I16
I12
I1
tp566
a(I16
I13
I1
tp567
a(I16
I14
I1
tp568
a(I16
I16
I1
tp569
a(I16
I17
I1
tp570
a(I16
I18
I1
tp571
a(I16
I19
I1
tp572
a(I16
I20
I1
tp573
a(I16
I21
I1
tp574
a(I16
I22
I1
tp575
a(I16
I24
I1
tp576
a(I17
I4
I1
tp577
a(I17
I5
I1
tp578
a(I17
I6
I1
tp579
a(I17
I7
I1
tp580
a(I17
I8
I1
tp581
a(I17
I9
I1
tp582
a(I17
I10
I1
tp583
a(I17
I11
I1
tp584
a(I17
I12
I1
tp585
a(I17
I13
I1
tp586
a(I17
I14
I1
tp587
a(I17
I15
I1
tp588
a(I17
I16
I1
tp589
a(I17
I18
I1
tp590
a(I17
I19
I1
tp591
a(I17
I22
I1
tp592
a(I17
I24
I1
tp593
a(I17
I25
I1
tp594
a(I17
I26
I1
tp595
a(I17
I28
I1
tp596
a(I17
I29
I1
tp597
a(I18
I0
I1
tp598
a(I18
I5
I1
tp599
a(I18
I6
I1
tp600
a(I18
I7
I1
tp601
a(I18
I8
I1
tp602
a(I18
I9
I1
tp603
a(I18
I10
I1
tp604
a(I18
I11
I1
tp605
a(I18
I12
I1
tp606
a(I18
I13
I1
tp607
a(I18
I14
I1
tp608
a(I18
I15
I1
tp609
a(I18
I16
I1
tp610
a(I18
I17
I1
tp611
a(I18
I18
I1
tp612
a(I18
I19
I1
tp613
a(I18
I20
I1
tp614
a(I18
I22
I1
tp615
a(I18
I23
I1
tp616
a(I18
I24
I1
tp617
a(I18
I25
I1
tp618
a(I18
I26
I1
tp619
a(I18
I28
I1
tp620
a(I19
I2
I1
tp621
a(I19
I4
I1
tp622
a(I19
I5
I1
tp623
a(I19
I6
I1
tp624
a(I19
I7
I1
tp625
a(I19
I8
I1
tp626
a(I19
I9
I1
tp627
a(I19
I10
I1
tp628
a(I19
I11
I1
tp629
a(I19
I12
I1
tp630
a(I19
I13
I1
tp631
a(I19
I14
I1
tp632
a(I19
I15
I1
tp633
a(I19
I16
I1
tp634
a(I19
I17
I1
tp635
a(I19
I18
I1
tp636
a(I19
I19
I1
tp637
a(I19
I20
I1
tp638
a(I19
I21
I1
tp639
a(I19
I23
I1
tp640
a(I19
I24
I1
tp641
a(I19
I25
I1
tp642
a(I20
I1
I1
tp643
a(I20
I5
I1
tp644
a(I20
I6
I1
tp645
a(I20
I7
I1
tp646
a(I20
I8
I1
tp647
a(I20
I9
I1
tp648
a(I20
I10
I1
tp649
a(I20
I11
I1
tp650
a(I20
I12
I1
tp651
a(I20
I13
I1
tp652
a(I20
I14
I1
tp653
a(I20
I15
I1
tp654
a(I20
I16
I1
tp655
a(I20
I17
I1
tp656
a(I20
I18
I1
tp657
a(I20
I19
I1
tp658
a(I20
I20
I1
tp659
a(I20
I21
I1
tp660
a(I20
I22
I1
tp661
a(I20
I23
I1
tp662
a(I20
I24
I1
tp663
a(I21
I0
I1
tp664
a(I21
I3
I1
tp665
a(I21
I5
I1
tp666
a(I21
I6
I1
tp667
a(I21
I7
I1
tp668
a(I21
I8
I1
tp669
a(I21
I9
I1
tp670
a(I21
I10
I1
tp671
a(I21
I11
I1
tp672
a(I21
I12
I1
tp673
a(I21
I13
I1
tp674
a(I21
I14
I1
tp675
a(I21
I15
I1
tp676
a(I21
I16
I1
tp677
a(I21
I17
I1
tp678
a(I21
I18
I1
tp679
a(I21
I19
I1
tp680
a(I21
I20
I1
tp681
a(I21
I21
I1
tp682
a(I21
I22
I1
tp683
a(I21
I24
I1
tp684
a(I21
I25
I1
tp685
a(I21
I27
I1
tp686
a(I22
I1
I1
tp687
a(I22
I5
I1
tp688
a(I22
I6
I1
tp689
a(I22
I7
I1
tp690
a(I22
I8
I1
tp691
a(I22
I9
I1
tp692
a(I22
I10
I1
tp693
a(I22
I11
I1
tp694
a(I22
I12
I1
tp695
a(I22
I13
I1
tp696
a(I22
I15
I1
tp697
a(I22
I17
I1
tp698
a(I22
I19
I1
tp699
a(I22
I21
I1
tp700
a(I22
I22
I1
tp701
a(I22
I23
I1
tp702
a(I22
I25
I1
tp703
a(I23
I0
I1
tp704
a(I23
I4
I1
tp705
a(I23
I5
I1
tp706
a(I23
I6
I1
tp707
a(I23
I7
I1
tp708
a(I23
I8
I1
tp709
a(I23
I9
I1
tp710
a(I23
I10
I1
tp711
a(I23
I11
I1
tp712
a(I23
I12
I1
tp713
a(I23
I13
I1
tp714
a(I24
I0
I1
tp715
a(I24
I2
I1
tp716
a(I24
I5
I1
tp717
a(I24
I6
I1
tp718
a(I24
I7
I1
tp719
a(I24
I8
I1
tp720
a(I24
I9
I1
tp721
a(I24
I10
I1
tp722
a(I24
I11
I1
tp723
a(I24
I12
I1
tp724
a(I25
I1
I1
tp725
a(I25
I4
I1
tp726
a(I25
I5
I1
tp727
a(I25
I6
I1
tp728
a(I25
I7
I1
tp729
a(I25
I9
I1
tp730
a(I25
I10
I1
tp731
a(I25
I11
I1
tp732
a(I26
I2
I1
tp733
a(I26
I3
I1
tp734
a(I26
I4
I1
tp735
a(I26
I5
I1
tp736
a(I26
I6
I1
tp737
a(I26
I7
I1
tp738
a(I26
I8
I1
tp739
a(I26
I10
I1
tp740
a(I27
I0
I1
tp741
a(I27
I1
I1
tp742
a(I27
I2
I1
tp743
a(I27
I3
I1
tp744
a(I27
I4
I1
tp745
a(I27
I5
I1
tp746
a(I27
I6
I1
tp747
a(I27
I8
I1
tp748
a(I27
I9
I1
tp749
a(I28
I0
I1
tp750
a(I28
I3
I1
tp751
a(I30
I1
I1
tp752
a(I32
I0
I1
tp753
a(I33
I1
I1
tp754
a(I33
I17
I1
tp755
a(I33
I20
I1
tp756
a(I34
I2
I1
tp757
a(I34
I3
I1
tp758
a(I34
I18
I1
tp759
a(I35
I21
I1
tp760
a(I35
I94
I1
tp761
a(I36
I23
I1
tp762
a(I36
I33
I1
tp763
a(I36
I52
I1
tp764
a(I37
I34
I1
tp765
a(I37
I55
I1
tp766
a(I38
I36
I1
tp767
a(I38
I38
I1
tp768
a(I39
I38
I1
tp769
a(I0
I33
I2
tp770
a(I0
I34
I2
tp771
a(I0
I36
I2
tp772
a(I0
I57
I2
tp773
a(I1
I14
I2
tp774
a(I1
I16
I2
tp775
a(I1
I21
I2
tp776
a(I1
I31
I2
tp777
a(I1
I32
I2
tp778
a(I1
I54
I2
tp779
a(I2
I10
I2
tp780
a(I2
I12
I2
tp781
a(I2
I47
I2
tp782
a(I2
I48
I2
tp783
a(I2
I51
I2
tp784
a(I2
I89
I2
tp785
a(I2
I90
I2
tp786
a(I2
I91
I2
tp787
a(I2
I92
I2
tp788
a(I2
I93
I2
tp789
a(I2
I94
I2
tp790
a(I2
I95
I2
tp791
a(I2
I96
I2
tp792
a(I2
I97
I2
tp793
a(I2
I98
I2
tp794
a(I3
I10
I2
tp795
a(I4
I3
I2
tp796
a(I8
I6
I2
tp797
a(I8
I7
I2
tp798
a(I8
I8
I2
tp799
a(I8
I9
I2
tp800
a(I8
I11
I2
tp801
a(I8
I12
I2
tp802
a(I8
I13
I2
tp803
a(I8
I14
I2
tp804
a(I8
I15
I2
tp805
a(I8
I17
I2
tp806
a(I8
I18
I2
tp807
a(I9
I3
I2
tp808
a(I9
I4
I2
tp809
a(I9
I6
I2
tp810
a(I9
I7
I2
tp811
a(I9
I8
I2
tp812
a(I9
I9
I2
tp813
a(I9
I10
I2
tp814
a(I9
I12
I2
tp815
a(I9
I13
I2
tp816
a(I9
I14
I2
tp817
a(I9
I15
I2
tp818
a(I9
I16
I2
tp819
a(I9
I17
I2
tp820
a(I9
I19
I2
tp821
a(I9
I21
I2
tp822
a(I9
I22
I2
tp823
a(I10
I1
I2
tp824
a(I10
I2
I2
tp825
a(I10
I4
I2
tp826
a(I10
I5
I2
tp827
a(I10
I6
I2
tp828
a(I10
I7
I2
tp829
a(I10
I8
I2
tp830
a(I10
I9
I2
tp831
a(I10
I10
I2
tp832
a(I10
I11
I2
tp833
a(I10
I12
I2
tp834
a(I10
I13
I2
tp835
a(I10
I14
I2
tp836
a(I10
I15
I2
tp837
a(I10
I16
I2
tp838
a(I10
I17
I2
tp839
a(I10
I18
I2
tp840
a(I10
I19
I2
tp841
a(I10
I20
I2
tp842
a(I10
I24
I2
tp843
a(I11
I4
I2
tp844
a(I11
I5
I2
tp845
a(I11
I6
I2
tp846
a(I11
I7
I2
tp847
a(I11
I8
I2
tp848
a(I11
I9
I2
tp849
a(I11
I10
I2
tp850
a(I11
I12
I2
tp851
a(I11
I13
I2
tp852
a(I11
I14
I2
tp853
a(I11
I15
I2
tp854
a(I11
I16
I2
tp855
a(I11
I17
I2
tp856
a(I11
I19
I2
tp857
a(I11
I20
I2
tp858
a(I11
I21
I2
tp859
a(I11
I25
I2
tp860
a(I12
I4
I2
tp861
a(I12
I5
I2
tp862
a(I12
I7
I2
tp863
a(I12
I8
I2
tp864
a(I12
I9
I2
tp865
a(I12
I10
I2
tp866
a(I12
I11
I2
tp867
a(I12
I12
I2
tp868
a(I12
I13
I2
tp869
a(I12
I14
I2
tp870
a(I12
I15
I2
tp871
a(I12
I16
I2
tp872
a(I12
I17
I2
tp873
a(I12
I18
I2
tp874
a(I12
I20
I2
tp875
a(I12
I21
I2
tp876
a(I12
I22
I2
tp877
a(I12
I23
I2
tp878
a(I12
I24
I2
tp879
a(I13
I4
I2
tp880
a(I13
I6
I2
tp881
a(I13
I7
I2
tp882
a(I13
I8
I2
tp883
a(I13
I9
I2
tp884
a(I13
I10
I2
tp885
a(I13
I11
I2
tp886
a(I13
I12
I2
tp887
a(I13
I15
I2
tp888
a(I13
I16
I2
tp889
a(I13
I17
I2
tp890
a(I13
I18
I2
tp891
a(I13
I20
I2
tp892
a(I13
I21
I2
tp893
a(I13
I22
I2
tp894
a(I13
I24
I2
tp895
a(I13
I25
I2
tp896
a(I14
I1
I2
tp897
a(I14
I3
I2
tp898
a(I14
I4
I2
tp899
a(I14
I5
I2
tp900
a(I14
I6
I2
tp901
a(I14
I7
I2
tp902
a(I14
I8
I2
tp903
a(I14
I9
I2
tp904
a(I14
I10
I2
tp905
a(I14
I11
I2
tp906
a(I14
I12
I2
tp907
a(I14
I13
I2
tp908
a(I14
I14
I2
tp909
a(I14
I15
I2
tp910
a(I14
I16
I2
tp911
a(I14
I17
I2
tp912
a(I14
I18
I2
tp913
a(I14
I19
I2
tp914
a(I14
I20
I2
tp915
a(I14
I25
I2
tp916
a(I15
I1
I2
tp917
a(I15
I2
I2
tp918
a(I15
I3
I2
tp919
a(I15
I4
I2
tp920
a(I15
I5
I2
tp921
a(I15
I6
I2
tp922
a(I15
I7
I2
tp923
a(I15
I8
I2
tp924
a(I15
I10
I2
tp925
a(I15
I12
I2
tp926
a(I15
I13
I2
tp927
a(I15
I14
I2
tp928
a(I15
I15
I2
tp929
a(I15
I18
I2
tp930
a(I15
I19
I2
tp931
a(I15
I20
I2
tp932
a(I15
I21
I2
tp933
a(I16
I1
I2
tp934
a(I16
I2
I2
tp935
a(I16
I3
I2
tp936
a(I16
I4
I2
tp937
a(I16
I5
I2
tp938
a(I16
I6
I2
tp939
a(I16
I7
I2
tp940
a(I16
I8
I2
tp941
a(I16
I9
I2
tp942
a(I16
I10
I2
tp943
a(I16
I11
I2
tp944
a(I16
I12
I2
tp945
a(I16
I13
I2
tp946
a(I16
I14
I2
tp947
a(I16
I15
I2
tp948
a(I16
I16
I2
tp949
a(I16
I18
I2
tp950
a(I16
I20
I2
tp951
a(I17
I0
I2
tp952
a(I17
I2
I2
tp953
a(I17
I3
I2
tp954
a(I17
I4
I2
tp955
a(I17
I5
I2
tp956
a(I17
I6
I2
tp957
a(I17
I7
I2
tp958
a(I17
I8
I2
tp959
a(I17
I9
I2
tp960
a(I17
I10
I2
tp961
a(I17
I11
I2
tp962
a(I17
I12
I2
tp963
a(I17
I13
I2
tp964
a(I17
I14
I2
tp965
a(I17
I15
I2
tp966
a(I17
I16
I2
tp967
a(I17
I17
I2
tp968
a(I17
I18
I2
tp969
a(I17
I19
I2
tp970
a(I17
I20
I2
tp971
a(I17
I21
I2
tp972
a(I18
I1
I2
tp973
a(I18
I2
I2
tp974
a(I18
I3
I2
tp975
a(I18
I4
I2
tp976
a(I18
I5
I2
tp977
a(I18
I6
I2
tp978
a(I18
I7
I2
tp979
a(I18
I8
I2
tp980
a(I18
I9
I2
tp981
a(I18
I11
I2
tp982
a(I18
I12
I2
tp983
a(I18
I13
I2
tp984
a(I18
I14
I2
tp985
a(I18
I15
I2
tp986
a(I18
I16
I2
tp987
a(I18
I17
I2
tp988
a(I18
I18
I2
tp989
a(I18
I19
I2
tp990
a(I18
I20
I2
tp991
a(I18
I21
I2
tp992
a(I18
I25
I2
tp993
a(I19
I0
I2
tp994
a(I19
I2
I2
tp995
a(I19
I3
I2
tp996
a(I19
I4
I2
tp997
a(I19
I5
I2
tp998
a(I19
I6
I2
tp999
a(I19
I7
I2
tp1000
a(I19
I8
I2
tp1001
a(I19
I9
I2
tp1002
a(I19
I10
I2
tp1003
a(I19
I11
I2
tp1004
a(I19
I12
I2
tp1005
a(I19
I13
I2
tp1006
a(I19
I15
I2
tp1007
a(I19
I16
I2
tp1008
a(I19
I17
I2
tp1009
a(I19
I18
I2
tp1010
a(I19
I19
I2
tp1011
a(I19
I21
I2
tp1012
a(I19
I23
I2
tp1013
a(I20
I2
I2
tp1014
a(I20
I3
I2
tp1015
a(I20
I4
I2
tp1016
a(I20
I5
I2
tp1017
a(I20
I6
I2
tp1018
a(I20
I7
I2
tp1019
a(I20
I8
I2
tp1020
a(I20
I9
I2
tp1021
a(I20
I10
I2
tp1022
a(I20
I11
I2
tp1023
a(I20
I12
I2
tp1024
a(I20
I14
I2
tp1025
a(I20
I15
I2
tp1026
a(I20
I16
I2
tp1027
a(I20
I17
I2
tp1028
a(I20
I18
I2
tp1029
a(I20
I19
I2
tp1030
a(I20
I20
I2
tp1031
a(I20
I21
I2
tp1032
a(I20
I22
I2
tp1033
a(I20
I24
I2
tp1034
a(I20
I25
I2
tp1035
a(I21
I0
I2
tp1036
a(I21
I1
I2
tp1037
a(I21
I2
I2
tp1038
a(I21
I3
I2
tp1039
a(I21
I4
I2
tp1040
a(I21
I5
I2
tp1041
a(I21
I6
I2
tp1042
a(I21
I7
I2
tp1043
a(I21
I8
I2
tp1044
a(I21
I9
I2
tp1045
a(I21
I11
I2
tp1046
a(I21
I12
I2
tp1047
a(I21
I13
I2
tp1048
a(I21
I14
I2
tp1049
a(I21
I15
I2
tp1050
a(I21
I16
I2
tp1051
a(I21
I17
I2
tp1052
a(I21
I18
I2
tp1053
a(I21
I19
I2
tp1054
a(I21
I20
I2
tp1055
a(I21
I21
I2
tp1056
a(I21
I22
I2
tp1057
a(I21
I23
I2
tp1058
a(I21
I24
I2
tp1059
a(I21
I25
I2
tp1060
a(I22
I1
I2
tp1061
a(I22
I2
I2
tp1062
a(I22
I3
I2
tp1063
a(I22
I4
I2
tp1064
a(I22
I5
I2
tp1065
a(I22
I6
I2
tp1066
a(I22
I7
I2
tp1067
a(I22
I8
I2
tp1068
a(I22
I9
I2
tp1069
a(I22
I10
I2
tp1070
a(I22
I11
I2
tp1071
a(I22
I12
I2
tp1072
a(I22
I13
I2
tp1073
a(I22
I14
I2
tp1074
a(I22
I15
I2
tp1075
a(I22
I16
I2
tp1076
a(I22
I19
I2
tp1077
a(I22
I22
I2
tp1078
a(I23
I1
I2
tp1079
a(I23
I2
I2
tp1080
a(I23
I3
I2
tp1081
a(I23
I4
I2
tp1082
a(I23
I5
I2
tp1083
a(I23
I6
I2
tp1084
a(I23
I7
I2
tp1085
a(I23
I8
I2
tp1086
a(I23
I9
I2
tp1087
a(I23
I10
I2
tp1088
a(I23
I11
I2
tp1089
a(I23
I12
I2
tp1090
a(I23
I13
I2
tp1091
a(I23
I14
I2
tp1092
a(I23
I16
I2
tp1093
a(I23
I17
I2
tp1094
a(I23
I18
I2
tp1095
a(I23
I19
I2
tp1096
a(I23
I20
I2
tp1097
a(I23
I21
I2
tp1098
a(I24
I0
I2
tp1099
a(I24
I1
I2
tp1100
a(I24
I2
I2
tp1101
a(I24
I3
I2
tp1102
a(I24
I4
I2
tp1103
a(I24
I5
I2
tp1104
a(I24
I6
I2
tp1105
a(I24
I7
I2
tp1106
a(I24
I8
I2
tp1107
a(I24
I9
I2
tp1108
a(I24
I10
I2
tp1109
a(I24
I11
I2
tp1110
a(I24
I12
I2
tp1111
a(I24
I13
I2
tp1112
a(I24
I14
I2
tp1113
a(I24
I16
I2
tp1114
a(I25
I2
I2
tp1115
a(I25
I3
I2
tp1116
a(I25
I4
I2
tp1117
a(I25
I5
I2
tp1118
a(I25
I6
I2
tp1119
a(I25
I7
I2
tp1120
a(I25
I8
I2
tp1121
a(I25
I9
I2
tp1122
a(I26
I0
I2
tp1123
a(I26
I1
I2
tp1124
a(I26
I2
I2
tp1125
a(I26
I3
I2
tp1126
a(I26
I4
I2
tp1127
a(I26
I5
I2
tp1128
a(I26
I6
I2
tp1129
a(I26
I8
I2
tp1130
a(I27
I0
I2
tp1131
a(I27
I1
I2
tp1132
a(I27
I3
I2
tp1133
a(I27
I5
I2
tp1134
a(I27
I6
I2
tp1135
a(I27
I7
I2
tp1136
a(I28
I0
I2
tp1137
a(I28
I2
I2
tp1138
a(I28
I5
I2
tp1139
a(I28
I6
I2
tp1140
a(I29
I0
I2
tp1141
a(I29
I1
I2
tp1142
a(I29
I2
I2
tp1143
a(I29
I3
I2
tp1144
a(I29
I4
I2
tp1145
a(I34
I9
I2
tp1146
a(I35
I0
I2
tp1147
a(I35
I1
I2
tp1148
a(I35
I14
I2
tp1149
a(I36
I5
I2
tp1150
a(I37
I16
I2
tp1151
a(I37
I19
I2
tp1152
a(I37
I20
I2
tp1153
a(I37
I30
I2
tp1154
a(I37
I31
I2
tp1155
a(I37
I32
I2
tp1156
a(I37
I61
I2
tp1157
a(I37
I62
I2
tp1158
a(I37
I63
I2
tp1159
a(I37
I64
I2
tp1160
a(I37
I65
I2
tp1161
a(I37
I66
I2
tp1162
a(I37
I67
I2
tp1163
a(I37
I68
I2
tp1164
a(I37
I69
I2
tp1165
a(I37
I70
I2
tp1166
a(I37
I71
I2
tp1167
a(I37
I72
I2
tp1168
a(I37
I73
I2
tp1169
a(I37
I74
I2
tp1170
a(I37
I75
I2
tp1171
a(I37
I76
I2
tp1172
a(I37
I77
I2
tp1173
a(I37
I78
I2
tp1174
a(I37
I79
I2
tp1175
a(I37
I80
I2
tp1176
a(I37
I84
I2
tp1177
a(I37
I86
I2
tp1178
a(I37
I92
I2
tp1179
a(I37
I93
I2
tp1180
a(I37
I97
I2
tp1181
a(I37
I98
I2
tp1182
a(I37
I99
I2
tp1183
a(I38
I19
I2
tp1184
a(I38
I31
I2
tp1185
a(I38
I32
I2
tp1186
a(I38
I51
I2
tp1187
a(I39
I29
I2
tp1188
a(I39
I32
I2
tp1189
a(I39
I51
I2
tp1190
a(I39
I52
I2
tp1191
a(I39
I53
I2
tp1192
a(I40
I32
I2
tp1193
a(I41
I33
I2
tp1194
a(I41
I38
I2
tp1195
a(I0
I1
I3
tp1196
a(I0
I2
I3
tp1197
a(I0
I5
I3
tp1198
a(I0
I27
I3
tp1199
a(I0
I29
I3
tp1200
a(I0
I30
I3
tp1201
a(I0
I62
I3
tp1202
a(I0
I65
I3
tp1203
a(I1
I0
I3
tp1204
a(I1
I23
I3
tp1205
a(I1
I25
I3
tp1206
a(I1
I38
I3
tp1207
a(I1
I39
I3
tp1208
a(I1
I40
I3
tp1209
a(I1
I59
I3
tp1210
a(I1
I62
I3
tp1211
a(I2
I0
I3
tp1212
a(I2
I17
I3
tp1213
a(I2
I51
I3
tp1214
a(I2
I53
I3
tp1215
a(I2
I55
I3
tp1216
a(I2
I57
I3
tp1217
a(I2
I59
I3
tp1218
a(I2
I93
I3
tp1219
a(I2
I95
I3
tp1220
a(I2
I97
I3
tp1221
a(I2
I99
I3
tp1222
a(I3
I0
I3
tp1223
a(I3
I15
I3
tp1224
a(I9
I6
I3
tp1225
a(I9
I10
I3
tp1226
a(I9
I11
I3
tp1227
a(I9
I12
I3
tp1228
a(I9
I13
I3
tp1229
a(I9
I14
I3
tp1230
a(I9
I15
I3
tp1231
a(I9
I16
I3
tp1232
a(I9
I17
I3
tp1233
a(I9
I19
I3
tp1234
a(I9
I20
I3
tp1235
a(I9
I21
I3
tp1236
a(I9
I22
I3
tp1237
a(I9
I23
I3
tp1238
a(I9
I24
I3
tp1239
a(I9
I26
I3
tp1240
a(I9
I29
I3
tp1241
a(I10
I5
I3
tp1242
a(I10
I10
I3
tp1243
a(I10
I11
I3
tp1244
a(I10
I12
I3
tp1245
a(I10
I13
I3
tp1246
a(I10
I14
I3
tp1247
a(I10
I15
I3
tp1248
a(I10
I17
I3
tp1249
a(I10
I18
I3
tp1250
a(I10
I19
I3
tp1251
a(I10
I20
I3
tp1252
a(I10
I21
I3
tp1253
a(I10
I23
I3
tp1254
a(I10
I24
I3
tp1255
a(I10
I25
I3
tp1256
a(I10
I28
I3
tp1257
a(I11
I7
I3
tp1258
a(I11
I10
I3
tp1259
a(I11
I11
I3
tp1260
a(I11
I12
I3
tp1261
a(I11
I13
I3
tp1262
a(I11
I14
I3
tp1263
a(I11
I15
I3
tp1264
a(I11
I16
I3
tp1265
a(I11
I17
I3
tp1266
a(I11
I18
I3
tp1267
a(I11
I19
I3
tp1268
a(I11
I20
I3
tp1269
a(I11
I21
I3
tp1270
a(I11
I22
I3
tp1271
a(I11
I23
I3
tp1272
a(I11
I24
I3
tp1273
a(I11
I26
I3
tp1274
a(I11
I28
I3
tp1275
a(I11
I29
I3
tp1276
a(I11
I30
I3
tp1277
a(I12
I10
I3
tp1278
a(I12
I11
I3
tp1279
a(I12
I12
I3
tp1280
a(I12
I13
I3
tp1281
a(I12
I14
I3
tp1282
a(I12
I15
I3
tp1283
a(I12
I18
I3
tp1284
a(I12
I19
I3
tp1285
a(I12
I20
I3
tp1286
a(I12
I21
I3
tp1287
a(I12
I22
I3
tp1288
a(I12
I23
I3
tp1289
a(I12
I24
I3
tp1290
a(I12
I27
I3
tp1291
a(I12
I28
I3
tp1292
a(I12
I29
I3
tp1293
a(I13
I0
I3
tp1294
a(I13
I9
I3
tp1295
a(I13
I11
I3
tp1296
a(I13
I12
I3
tp1297
a(I13
I13
I3
tp1298
a(I13
I14
I3
tp1299
a(I13
I15
I3
tp1300
a(I13
I16
I3
tp1301
a(I13
I17
I3
tp1302
a(I13
I18
I3
tp1303
a(I13
I19
I3
tp1304
a(I13
I21
I3
tp1305
a(I13
I22
I3
tp1306
a(I13
I23
I3
tp1307
a(I13
I24
I3
tp1308
a(I13
I25
I3
tp1309
a(I13
I26
I3
tp1310
a(I13
I27
I3
tp1311
a(I14
I0
I3
tp1312
a(I14
I8
I3
tp1313
a(I14
I9
I3
tp1314
a(I14
I10
I3
tp1315
a(I14
I12
I3
tp1316
a(I14
I13
I3
tp1317
a(I14
I14
I3
tp1318
a(I14
I15
I3
tp1319
a(I14
I16
I3
tp1320
a(I14
I17
I3
tp1321
a(I14
I18
I3
tp1322
a(I14
I19
I3
tp1323
a(I14
I20
I3
tp1324
a(I14
I21
I3
tp1325
a(I14
I22
I3
tp1326
a(I14
I23
I3
tp1327
a(I14
I24
I3
tp1328
a(I14
I25
I3
tp1329
a(I14
I26
I3
tp1330
a(I14
I27
I3
tp1331
a(I14
I28
I3
tp1332
a(I14
I29
I3
tp1333
a(I14
I31
I3
tp1334
a(I15
I0
I3
tp1335
a(I15
I7
I3
tp1336
a(I15
I8
I3
tp1337
a(I15
I9
I3
tp1338
a(I15
I10
I3
tp1339
a(I15
I11
I3
tp1340
a(I15
I12
I3
tp1341
a(I15
I13
I3
tp1342
a(I15
I14
I3
tp1343
a(I15
I16
I3
tp1344
a(I15
I17
I3
tp1345
a(I15
I18
I3
tp1346
a(I15
I19
I3
tp1347
a(I15
I20
I3
tp1348
a(I15
I21
I3
tp1349
a(I15
I22
I3
tp1350
a(I15
I23
I3
tp1351
a(I15
I24
I3
tp1352
a(I15
I25
I3
tp1353
a(I15
I26
I3
tp1354
a(I15
I31
I3
tp1355
a(I16
I7
I3
tp1356
a(I16
I8
I3
tp1357
a(I16
I9
I3
tp1358
a(I16
I10
I3
tp1359
a(I16
I11
I3
tp1360
a(I16
I12
I3
tp1361
a(I16
I13
I3
tp1362
a(I16
I14
I3
tp1363
a(I16
I16
I3
tp1364
a(I16
I17
I3
tp1365
a(I16
I18
I3
tp1366
a(I16
I19
I3
tp1367
a(I16
I20
I3
tp1368
a(I16
I21
I3
tp1369
a(I16
I23
I3
tp1370
a(I16
I26
I3
tp1371
a(I17
I0
I3
tp1372
a(I17
I1
I3
tp1373
a(I17
I7
I3
tp1374
a(I17
I8
I3
tp1375
a(I17
I9
I3
tp1376
a(I17
I10
I3
tp1377
a(I17
I11
I3
tp1378
a(I17
I12
I3
tp1379
a(I17
I13
I3
tp1380
a(I17
I14
I3
tp1381
a(I17
I15
I3
tp1382
a(I17
I17
I3
tp1383
a(I17
I18
I3
tp1384
a(I17
I19
I3
tp1385
a(I17
I20
I3
tp1386
a(I17
I21
I3
tp1387
a(I17
I22
I3
tp1388
a(I17
I23
I3
tp1389
a(I17
I24
I3
tp1390
a(I17
I31
I3
tp1391
a(I18
I0
I3
tp1392
a(I18
I6
I3
tp1393
a(I18
I7
I3
tp1394
a(I18
I8
I3
tp1395
a(I18
I9
I3
tp1396
a(I18
I10
I3
tp1397
a(I18
I11
I3
tp1398
a(I18
I12
I3
tp1399
a(I18
I13
I3
tp1400
a(I18
I14
I3
tp1401
a(I18
I15
I3
tp1402
a(I18
I16
I3
tp1403
a(I18
I17
I3
tp1404
a(I18
I18
I3
tp1405
a(I18
I20
I3
tp1406
a(I18
I21
I3
tp1407
a(I18
I22
I3
tp1408
a(I18
I23
I3
tp1409
a(I18
I24
I3
tp1410
a(I18
I25
I3
tp1411
a(I18
I26
I3
tp1412
a(I18
I27
I3
tp1413
a(I18
I28
I3
tp1414
a(I18
I30
I3
tp1415
a(I18
I31
I3
tp1416
a(I19
I7
I3
tp1417
a(I19
I8
I3
tp1418
a(I19
I9
I3
tp1419
a(I19
I10
I3
tp1420
a(I19
I11
I3
tp1421
a(I19
I12
I3
tp1422
a(I19
I13
I3
tp1423
a(I19
I14
I3
tp1424
a(I19
I16
I3
tp1425
a(I19
I17
I3
tp1426
a(I19
I18
I3
tp1427
a(I19
I19
I3
tp1428
a(I19
I20
I3
tp1429
a(I19
I21
I3
tp1430
a(I19
I22
I3
tp1431
a(I19
I24
I3
tp1432
a(I19
I25
I3
tp1433
a(I19
I27
I3
tp1434
a(I19
I29
I3
tp1435
a(I19
I30
I3
tp1436
a(I20
I0
I3
tp1437
a(I20
I1
I3
tp1438
a(I20
I4
I3
tp1439
a(I20
I6
I3
tp1440
a(I20
I7
I3
tp1441
a(I20
I8
I3
tp1442
a(I20
I9
I3
tp1443
a(I20
I10
I3
tp1444
a(I20
I11
I3
tp1445
a(I20
I12
I3
tp1446
a(I20
I13
I3
tp1447
a(I20
I14
I3
tp1448
a(I20
I15
I3
tp1449
a(I20
I16
I3
tp1450
a(I20
I17
I3
tp1451
a(I20
I18
I3
tp1452
a(I20
I19
I3
tp1453
a(I20
I20
I3
tp1454
a(I20
I21
I3
tp1455
a(I20
I22
I3
tp1456
a(I20
I23
I3
tp1457
a(I20
I24
I3
tp1458
a(I20
I25
I3
tp1459
a(I20
I26
I3
tp1460
a(I20
I27
I3
tp1461
a(I21
I0
I3
tp1462
a(I21
I1
I3
tp1463
a(I21
I3
I3
tp1464
a(I21
I7
I3
tp1465
a(I21
I8
I3
tp1466
a(I21
I9
I3
tp1467
a(I21
I10
I3
tp1468
a(I21
I12
I3
tp1469
a(I21
I13
I3
tp1470
a(I21
I14
I3
tp1471
a(I21
I15
I3
tp1472
a(I21
I16
I3
tp1473
a(I21
I18
I3
tp1474
a(I21
I19
I3
tp1475
a(I21
I20
I3
tp1476
a(I21
I21
I3
tp1477
a(I21
I22
I3
tp1478
a(I21
I23
I3
tp1479
a(I21
I24
I3
tp1480
a(I21
I25
I3
tp1481
a(I21
I26
I3
tp1482
a(I22
I0
I3
tp1483
a(I22
I1
I3
tp1484
a(I22
I5
I3
tp1485
a(I22
I7
I3
tp1486
a(I22
I8
I3
tp1487
a(I22
I9
I3
tp1488
a(I22
I10
I3
tp1489
a(I22
I11
I3
tp1490
a(I22
I12
I3
tp1491
a(I22
I13
I3
tp1492
a(I22
I14
I3
tp1493
a(I22
I15
I3
tp1494
a(I22
I18
I3
tp1495
a(I22
I19
I3
tp1496
a(I22
I20
I3
tp1497
a(I22
I21
I3
tp1498
a(I22
I22
I3
tp1499
a(I22
I23
I3
tp1500
a(I22
I24
I3
tp1501
a(I22
I26
I3
tp1502
a(I22
I29
I3
tp1503
a(I23
I1
I3
tp1504
a(I23
I7
I3
tp1505
a(I23
I8
I3
tp1506
a(I23
I9
I3
tp1507
a(I23
I10
I3
tp1508
a(I23
I11
I3
tp1509
a(I23
I12
I3
tp1510
a(I23
I13
I3
tp1511
a(I23
I14
I3
tp1512
a(I23
I15
I3
tp1513
a(I23
I17
I3
tp1514
a(I23
I18
I3
tp1515
a(I23
I19
I3
tp1516
a(I23
I20
I3
tp1517
a(I23
I21
I3
tp1518
a(I23
I22
I3
tp1519
a(I23
I23
I3
tp1520
a(I23
I25
I3
tp1521
a(I23
I26
I3
tp1522
a(I24
I2
I3
tp1523
a(I24
I3
I3
tp1524
a(I24
I6
I3
tp1525
a(I24
I7
I3
tp1526
a(I24
I8
I3
tp1527
a(I24
I9
I3
tp1528
a(I24
I10
I3
tp1529
a(I24
I11
I3
tp1530
a(I24
I12
I3
tp1531
a(I24
I13
I3
tp1532
a(I24
I14
I3
tp1533
a(I24
I15
I3
tp1534
a(I25
I0
I3
tp1535
a(I25
I2
I3
tp1536
a(I25
I4
I3
tp1537
a(I25
I7
I3
tp1538
a(I25
I8
I3
tp1539
a(I25
I9
I3
tp1540
a(I25
I10
I3
tp1541
a(I25
I11
I3
tp1542
a(I25
I12
I3
tp1543
a(I25
I13
I3
tp1544
a(I25
I14
I3
tp1545
a(I26
I0
I3
tp1546
a(I26
I1
I3
tp1547
a(I26
I6
I3
tp1548
a(I26
I7
I3
tp1549
a(I26
I8
I3
tp1550
a(I26
I9
I3
tp1551
a(I26
I10
I3
tp1552
a(I26
I11
I3
tp1553
a(I26
I12
I3
tp1554
a(I26
I13
I3
tp1555
a(I27
I0
I3
tp1556
a(I27
I2
I3
tp1557
a(I27
I4
I3
tp1558
a(I27
I5
I3
tp1559
a(I27
I6
I3
tp1560
a(I27
I7
I3
tp1561
a(I27
I8
I3
tp1562
a(I27
I9
I3
tp1563
a(I27
I10
I3
tp1564
a(I27
I12
I3
tp1565
a(I28
I2
I3
tp1566
a(I28
I3
I3
tp1567
a(I28
I4
I3
tp1568
a(I28
I5
I3
tp1569
a(I28
I7
I3
tp1570
a(I28
I8
I3
tp1571
a(I28
I10
I3
tp1572
a(I28
I11
I3
tp1573
a(I29
I1
I3
tp1574
a(I29
I2
I3
tp1575
a(I29
I4
I3
tp1576
a(I29
I5
I3
tp1577
a(I29
I6
I3
tp1578
a(I29
I9
I3
tp1579
a(I30
I0
I3
tp1580
a(I30
I4
I3
tp1581
a(I32
I0
I3
tp1582
a(I33
I1
I3
tp1583
a(I33
I2
I3
tp1584
a(I33
I3
I3
tp1585
a(I34
I2
I3
tp1586
a(I34
I3
I3
tp1587
a(I34
I4
I3
tp1588
a(I35
I3
I3
tp1589
a(I35
I19
I3
tp1590
a(I36
I5
I3
tp1591
a(I36
I7
I3
tp1592
a(I36
I8
I3
tp1593
a(I37
I25
I3
tp1594
a(I37
I34
I3
tp1595
a(I37
I36
I3
tp1596
a(I37
I68
I3
tp1597
a(I37
I70
I3
tp1598
a(I37
I72
I3
tp1599
a(I37
I74
I3
tp1600
a(I37
I76
I3
tp1601
a(I37
I78
I3
tp1602
a(I37
I80
I3
tp1603
a(I37
I82
I3
tp1604
a(I37
I84
I3
tp1605
a(I37
I86
I3
tp1606
a(I37
I88
I3
tp1607
a(I37
I98
I3
tp1608
a(I38
I35
I3
tp1609
a(I38
I37
I3
tp1610
a(I39
I37
I3
tp1611
a(I39
I59
I3
tp1612
a(I39
I60
I3
tp1613
a(I41
I42
I3
tp1614
a(I0
I0
I4
tp1615
a(I1
I20
I4
tp1616
a(I1
I37
I4
tp1617
a(I2
I16
I4
tp1618
a(I8
I12
I4
tp1619
a(I8
I14
I4
tp1620
a(I8
I15
I4
tp1621
a(I8
I16
I4
tp1622
a(I8
I18
I4
tp1623
a(I8
I19
I4
tp1624
a(I8
I20
I4
tp1625
a(I8
I21
I4
tp1626
a(I8
I22
I4
tp1627
a(I8
I26
I4
tp1628
a(I9
I3
I4
tp1629
a(I9
I4
I4
tp1630
a(I9
I5
I4
tp1631
a(I9
I8
I4
tp1632
a(I9
I9
I4
tp1633
a(I9
I10
I4
tp1634
a(I9
I11
I4
tp1635
a(I9
I12
I4
tp1636
a(I9
I13
I4
tp1637
a(I9
I14
I4
tp1638
a(I9
I15
I4
tp1639
a(I9
I16
I4
tp1640
a(I9
I17
I4
tp1641
a(I9
I18
I4
tp1642
a(I9
I19
I4
tp1643
a(I9
I20
I4
tp1644
a(I9
I21
I4
tp1645
a(I9
I22
I4
tp1646
a(I9
I23
I4
tp1647
a(I9
I25
I4
tp1648
a(I9
I26
I4
tp1649
a(I10
I8
I4
tp1650
a(I10
I9
I4
tp1651
a(I10
I10
I4
tp1652
a(I10
I11
I4
tp1653
a(I10
I12
I4
tp1654
a(I10
I13
I4
tp1655
a(I10
I14
I4
tp1656
a(I10
I15
I4
tp1657
a(I10
I16
I4
tp1658
a(I10
I17
I4
tp1659
a(I10
I18
I4
tp1660
a(I10
I19
I4
tp1661
a(I10
I20
I4
tp1662
a(I10
I21
I4
tp1663
a(I10
I22
I4
tp1664
a(I10
I23
I4
tp1665
a(I10
I24
I4
tp1666
a(I10
I25
I4
tp1667
a(I10
I26
I4
tp1668
a(I10
I28
I4
tp1669
a(I10
I29
I4
tp1670
a(I11
I8
I4
tp1671
a(I11
I9
I4
tp1672
a(I11
I10
I4
tp1673
a(I11
I11
I4
tp1674
a(I11
I12
I4
tp1675
a(I11
I13
I4
tp1676
a(I11
I14
I4
tp1677
a(I11
I15
I4
tp1678
a(I11
I16
I4
tp1679
a(I11
I17
I4
tp1680
a(I11
I18
I4
tp1681
a(I11
I19
I4
tp1682
a(I11
I20
I4
tp1683
a(I11
I21
I4
tp1684
a(I11
I22
I4
tp1685
a(I11
I24
I4
tp1686
a(I11
I25
I4
tp1687
a(I11
I26
I4
tp1688
a(I11
I28
I4
tp1689
a(I11
I29
I4
tp1690
a(I12
I4
I4
tp1691
a(I12
I9
I4
tp1692
a(I12
I10
I4
tp1693
a(I12
I11
I4
tp1694
a(I12
I12
I4
tp1695
a(I12
I13
I4
tp1696
a(I12
I15
I4
tp1697
a(I12
I16
I4
tp1698
a(I12
I18
I4
tp1699
a(I12
I19
I4
tp1700
a(I12
I20
I4
tp1701
a(I12
I21
I4
tp1702
a(I12
I22
I4
tp1703
a(I12
I23
I4
tp1704
a(I12
I24
I4
tp1705
a(I12
I25
I4
tp1706
a(I12
I26
I4
tp1707
a(I13
I7
I4
tp1708
a(I13
I9
I4
tp1709
a(I13
I10
I4
tp1710
a(I13
I11
I4
tp1711
a(I13
I12
I4
tp1712
a(I13
I13
I4
tp1713
a(I13
I14
I4
tp1714
a(I13
I15
I4
tp1715
a(I13
I18
I4
tp1716
a(I13
I19
I4
tp1717
a(I13
I22
I4
tp1718
a(I13
I23
I4
tp1719
a(I13
I24
I4
tp1720
a(I13
I25
I4
tp1721
a(I13
I29
I4
tp1722
a(I13
I84
I4
tp1723
a(I14
I6
I4
tp1724
a(I14
I8
I4
tp1725
a(I14
I9
I4
tp1726
a(I14
I10
I4
tp1727
a(I14
I12
I4
tp1728
a(I14
I13
I4
tp1729
a(I14
I14
I4
tp1730
a(I14
I15
I4
tp1731
a(I14
I16
I4
tp1732
a(I14
I17
I4
tp1733
a(I14
I18
I4
tp1734
a(I14
I19
I4
tp1735
a(I14
I20
I4
tp1736
a(I14
I21
I4
tp1737
a(I14
I22
I4
tp1738
a(I14
I23
I4
tp1739
a(I14
I24
I4
tp1740
a(I14
I25
I4
tp1741
a(I15
I6
I4
tp1742
a(I15
I7
I4
tp1743
a(I15
I8
I4
tp1744
a(I15
I9
I4
tp1745
a(I15
I10
I4
tp1746
a(I15
I11
I4
tp1747
a(I15
I12
I4
tp1748
a(I15
I13
I4
tp1749
a(I15
I14
I4
tp1750
a(I15
I15
I4
tp1751
a(I15
I16
I4
tp1752
a(I15
I17
I4
tp1753
a(I15
I18
I4
tp1754
a(I15
I20
I4
tp1755
a(I15
I24
I4
tp1756
a(I16
I4
I4
tp1757
a(I16
I5
I4
tp1758
a(I16
I6
I4
tp1759
a(I16
I7
I4
tp1760
a(I16
I8
I4
tp1761
a(I16
I9
I4
tp1762
a(I16
I10
I4
tp1763
a(I16
I11
I4
tp1764
a(I16
I12
I4
tp1765
a(I16
I13
I4
tp1766
a(I16
I14
I4
tp1767
a(I16
I15
I4
tp1768
a(I16
I16
I4
tp1769
a(I16
I17
I4
tp1770
a(I16
I18
I4
tp1771
a(I16
I19
I4
tp1772
a(I16
I20
I4
tp1773
a(I16
I21
I4
tp1774
a(I16
I23
I4
tp1775
a(I16
I24
I4
tp1776
a(I16
I25
I4
tp1777
a(I17
I5
I4
tp1778
a(I17
I6
I4
tp1779
a(I17
I7
I4
tp1780
a(I17
I8
I4
tp1781
a(I17
I9
I4
tp1782
a(I17
I10
I4
tp1783
a(I17
I11
I4
tp1784
a(I17
I12
I4
tp1785
a(I17
I13
I4
tp1786
a(I17
I14
I4
tp1787
a(I17
I15
I4
tp1788
a(I17
I16
I4
tp1789
a(I17
I17
I4
tp1790
a(I17
I19
I4
tp1791
a(I17
I20
I4
tp1792
a(I17
I23
I4
tp1793
a(I17
I25
I4
tp1794
a(I17
I29
I4
tp1795
a(I18
I0
I4
tp1796
a(I18
I3
I4
tp1797
a(I18
I6
I4
tp1798
a(I18
I7
I4
tp1799
a(I18
I8
I4
tp1800
a(I18
I9
I4
tp1801
a(I18
I10
I4
tp1802
a(I18
I11
I4
tp1803
a(I18
I12
I4
tp1804
a(I18
I13
I4
tp1805
a(I18
I14
I4
tp1806
a(I18
I15
I4
tp1807
a(I18
I16
I4
tp1808
a(I18
I19
I4
tp1809
a(I18
I20
I4
tp1810
a(I18
I21
I4
tp1811
a(I18
I22
I4
tp1812
a(I18
I23
I4
tp1813
a(I18
I25
I4
tp1814
a(I18
I26
I4
tp1815
a(I18
I28
I4
tp1816
a(I18
I29
I4
tp1817
a(I19
I6
I4
tp1818
a(I19
I7
I4
tp1819
a(I19
I8
I4
tp1820
a(I19
I9
I4
tp1821
a(I19
I10
I4
tp1822
a(I19
I11
I4
tp1823
a(I19
I12
I4
tp1824
a(I19
I13
I4
tp1825
a(I19
I14
I4
tp1826
a(I19
I15
I4
tp1827
a(I19
I16
I4
tp1828
a(I19
I18
I4
tp1829
a(I19
I20
I4
tp1830
a(I19
I21
I4
tp1831
a(I19
I22
I4
tp1832
a(I19
I24
I4
tp1833
a(I19
I25
I4
tp1834
a(I19
I26
I4
tp1835
a(I19
I27
I4
tp1836
a(I19
I28
I4
tp1837
a(I20
I1
I4
tp1838
a(I20
I2
I4
tp1839
a(I20
I4
I4
tp1840
a(I20
I5
I4
tp1841
a(I20
I6
I4
tp1842
a(I20
I7
I4
tp1843
a(I20
I8
I4
tp1844
a(I20
I9
I4
tp1845
a(I20
I10
I4
tp1846
a(I20
I11
I4
tp1847
a(I20
I12
I4
tp1848
a(I20
I13
I4
tp1849
a(I20
I14
I4
tp1850
a(I20
I15
I4
tp1851
a(I20
I16
I4
tp1852
a(I20
I17
I4
tp1853
a(I20
I19
I4
tp1854
a(I20
I20
I4
tp1855
a(I20
I21
I4
tp1856
a(I20
I22
I4
tp1857
a(I20
I23
I4
tp1858
a(I20
I24
I4
tp1859
a(I20
I25
I4
tp1860
a(I20
I27
I4
tp1861
a(I20
I29
I4
tp1862
a(I21
I5
I4
tp1863
a(I21
I6
I4
tp1864
a(I21
I7
I4
tp1865
a(I21
I8
I4
tp1866
a(I21
I9
I4
tp1867
a(I21
I10
I4
tp1868
a(I21
I11
I4
tp1869
a(I21
I12
I4
tp1870
a(I21
I13
I4
tp1871
a(I21
I14
I4
tp1872
a(I21
I15
I4
tp1873
a(I21
I16
I4
tp1874
a(I21
I17
I4
tp1875
a(I21
I18
I4
tp1876
a(I21
I19
I4
tp1877
a(I21
I20
I4
tp1878
a(I21
I21
I4
tp1879
a(I21
I22
I4
tp1880
a(I21
I24
I4
tp1881
a(I21
I26
I4
tp1882
a(I21
I28
I4
tp1883
a(I22
I1
I4
tp1884
a(I22
I5
I4
tp1885
a(I22
I6
I4
tp1886
a(I22
I7
I4
tp1887
a(I22
I8
I4
tp1888
a(I22
I9
I4
tp1889
a(I22
I10
I4
tp1890
a(I22
I11
I4
tp1891
a(I22
I12
I4
tp1892
a(I22
I13
I4
tp1893
a(I22
I15
I4
tp1894
a(I22
I16
I4
tp1895
a(I22
I17
I4
tp1896
a(I22
I18
I4
tp1897
a(I22
I19
I4
tp1898
a(I22
I21
I4
tp1899
a(I22
I23
I4
tp1900
a(I22
I24
I4
tp1901
a(I22
I27
I4
tp1902
a(I23
I0
I4
tp1903
a(I23
I1
I4
tp1904
a(I23
I4
I4
tp1905
a(I23
I6
I4
tp1906
a(I23
I7
I4
tp1907
a(I23
I8
I4
tp1908
a(I23
I9
I4
tp1909
a(I23
I10
I4
tp1910
a(I23
I11
I4
tp1911
a(I23
I12
I4
tp1912
a(I23
I13
I4
tp1913
a(I24
I0
I4
tp1914
a(I24
I3
I4
tp1915
a(I24
I6
I4
tp1916
a(I24
I7
I4
tp1917
a(I24
I8
I4
tp1918
a(I24
I9
I4
tp1919
a(I24
I10
I4
tp1920
a(I24
I11
I4
tp1921
a(I24
I12
I4
tp1922
a(I24
I13
I4
tp1923
a(I25
I1
I4
tp1924
a(I25
I5
I4
tp1925
a(I25
I6
I4
tp1926
a(I25
I7
I4
tp1927
a(I25
I8
I4
tp1928
a(I25
I9
I4
tp1929
a(I25
I10
I4
tp1930
a(I25
I11
I4
tp1931
a(I25
I12
I4
tp1932
a(I26
I0
I4
tp1933
a(I26
I4
I4
tp1934
a(I26
I5
I4
tp1935
a(I26
I6
I4
tp1936
a(I26
I7
I4
tp1937
a(I26
I8
I4
tp1938
a(I26
I9
I4
tp1939
a(I26
I10
I4
tp1940
a(I26
I11
I4
tp1941
a(I27
I0
I4
tp1942
a(I27
I1
I4
tp1943
a(I27
I2
I4
tp1944
a(I27
I3
I4
tp1945
a(I27
I4
I4
tp1946
a(I27
I5
I4
tp1947
a(I27
I6
I4
tp1948
a(I27
I10
I4
tp1949
a(I28
I0
I4
tp1950
a(I32
I0
I4
tp1951
a(I33
I1
I4
tp1952
a(I33
I2
I4
tp1953
a(I33
I17
I4
tp1954
a(I34
I4
I4
tp1955
a(I35
I21
I4
tp1956
a(I35
I95
I4
tp1957
a(I36
I33
I4
tp1958
a(I36
I37
I4
tp1959
a(I36
I53
I4
tp1960
a(I37
I25
I4
tp1961
a(I37
I34
I4
tp1962
a(I37
I35
I4
tp1963
a(I37
I55
I4
tp1964
a(I37
I56
I4
tp1965
a(I38
I36
I4
tp1966
a(I0
I23
I5
tp1967
a(I0
I28
I5
tp1968
a(I0
I37
I5
tp1969
a(I0
I38
I5
tp1970
a(I0
I57
I5
tp1971
a(I0
I95
I5
tp1972
a(I1
I20
I5
tp1973
a(I1
I22
I5
tp1974
a(I1
I33
I5
tp1975
a(I1
I35
I5
tp1976
a(I1
I54
I5
tp1977
a(I1
I92
I5
tp1978
a(I2
I46
I5
tp1979
a(I2
I47
I5
tp1980
a(I2
I48
I5
tp1981
a(I2
I49
I5
tp1982
a(I2
I51
I5
tp1983
a(I2
I89
I5
tp1984
a(I2
I90
I5
tp1985
a(I2
I91
I5
tp1986
a(I2
I92
I5
tp1987
a(I2
I93
I5
tp1988
a(I2
I94
I5
tp1989
a(I2
I95
I5
tp1990
a(I2
I96
I5
tp1991
a(I2
I97
I5
tp1992
a(I2
I98
I5
tp1993
a(I2
I99
I5
tp1994
a(I3
I11
I5
tp1995
a(I3
I12
I5
tp1996
a(I8
I6
I5
tp1997
a(I8
I8
I5
tp1998
a(I8
I9
I5
tp1999
a(I8
I10
I5
tp2000
a(I8
I11
I5
tp2001
a(I8
I12
I5
tp2002
a(I8
I13
I5
tp2003
a(I8
I14
I5
tp2004
a(I8
I15
I5
tp2005
a(I8
I16
I5
tp2006
a(I8
I17
I5
tp2007
a(I8
I18
I5
tp2008
a(I9
I5
I5
tp2009
a(I9
I6
I5
tp2010
a(I9
I7
I5
tp2011
a(I9
I9
I5
tp2012
a(I9
I10
I5
tp2013
a(I9
I11
I5
tp2014
a(I9
I12
I5
tp2015
a(I9
I13
I5
tp2016
a(I9
I14
I5
tp2017
a(I9
I15
I5
tp2018
a(I9
I16
I5
tp2019
a(I9
I17
I5
tp2020
a(I9
I19
I5
tp2021
a(I9
I20
I5
tp2022
a(I9
I21
I5
tp2023
a(I9
I24
I5
tp2024
a(I10
I0
I5
tp2025
a(I10
I5
I5
tp2026
a(I10
I6
I5
tp2027
a(I10
I7
I5
tp2028
a(I10
I8
I5
tp2029
a(I10
I9
I5
tp2030
a(I10
I10
I5
tp2031
a(I10
I11
I5
tp2032
a(I10
I14
I5
tp2033
a(I10
I15
I5
tp2034
a(I10
I16
I5
tp2035
a(I10
I17
I5
tp2036
a(I10
I18
I5
tp2037
a(I10
I19
I5
tp2038
a(I10
I20
I5
tp2039
a(I10
I23
I5
tp2040
a(I11
I2
I5
tp2041
a(I11
I5
I5
tp2042
a(I11
I6
I5
tp2043
a(I11
I7
I5
tp2044
a(I11
I8
I5
tp2045
a(I11
I9
I5
tp2046
a(I11
I10
I5
tp2047
a(I11
I11
I5
tp2048
a(I11
I12
I5
tp2049
a(I11
I13
I5
tp2050
a(I11
I14
I5
tp2051
a(I11
I15
I5
tp2052
a(I11
I16
I5
tp2053
a(I11
I17
I5
tp2054
a(I11
I18
I5
tp2055
a(I11
I19
I5
tp2056
a(I11
I20
I5
tp2057
a(I11
I21
I5
tp2058
a(I11
I23
I5
tp2059
a(I11
I24
I5
tp2060
a(I11
I25
I5
tp2061
a(I12
I5
I5
tp2062
a(I12
I6
I5
tp2063
a(I12
I7
I5
tp2064
a(I12
I8
I5
tp2065
a(I12
I9
I5
tp2066
a(I12
I10
I5
tp2067
a(I12
I11
I5
tp2068
a(I12
I12
I5
tp2069
a(I12
I13
I5
tp2070
a(I12
I14
I5
tp2071
a(I12
I15
I5
tp2072
a(I12
I16
I5
tp2073
a(I12
I17
I5
tp2074
a(I12
I19
I5
tp2075
a(I12
I22
I5
tp2076
a(I12
I23
I5
tp2077
a(I12
I24
I5
tp2078
a(I13
I4
I5
tp2079
a(I13
I6
I5
tp2080
a(I13
I7
I5
tp2081
a(I13
I8
I5
tp2082
a(I13
I9
I5
tp2083
a(I13
I10
I5
tp2084
a(I13
I11
I5
tp2085
a(I13
I12
I5
tp2086
a(I13
I13
I5
tp2087
a(I13
I14
I5
tp2088
a(I13
I15
I5
tp2089
a(I13
I16
I5
tp2090
a(I13
I17
I5
tp2091
a(I13
I18
I5
tp2092
a(I13
I19
I5
tp2093
a(I13
I20
I5
tp2094
a(I13
I21
I5
tp2095
a(I13
I22
I5
tp2096
a(I14
I3
I5
tp2097
a(I14
I4
I5
tp2098
a(I14
I5
I5
tp2099
a(I14
I6
I5
tp2100
a(I14
I7
I5
tp2101
a(I14
I8
I5
tp2102
a(I14
I9
I5
tp2103
a(I14
I10
I5
tp2104
a(I14
I11
I5
tp2105
a(I14
I12
I5
tp2106
a(I14
I13
I5
tp2107
a(I14
I14
I5
tp2108
a(I14
I16
I5
tp2109
a(I14
I17
I5
tp2110
a(I14
I18
I5
tp2111
a(I14
I19
I5
tp2112
a(I14
I20
I5
tp2113
a(I14
I21
I5
tp2114
a(I14
I22
I5
tp2115
a(I14
I23
I5
tp2116
a(I14
I24
I5
tp2117
a(I14
I26
I5
tp2118
a(I15
I2
I5
tp2119
a(I15
I3
I5
tp2120
a(I15
I4
I5
tp2121
a(I15
I5
I5
tp2122
a(I15
I6
I5
tp2123
a(I15
I7
I5
tp2124
a(I15
I8
I5
tp2125
a(I15
I9
I5
tp2126
a(I15
I10
I5
tp2127
a(I15
I11
I5
tp2128
a(I15
I12
I5
tp2129
a(I15
I13
I5
tp2130
a(I15
I14
I5
tp2131
a(I15
I15
I5
tp2132
a(I15
I16
I5
tp2133
a(I15
I17
I5
tp2134
a(I15
I19
I5
tp2135
a(I15
I20
I5
tp2136
a(I15
I21
I5
tp2137
a(I15
I26
I5
tp2138
a(I16
I2
I5
tp2139
a(I16
I3
I5
tp2140
a(I16
I4
I5
tp2141
a(I16
I5
I5
tp2142
a(I16
I6
I5
tp2143
a(I16
I7
I5
tp2144
a(I16
I8
I5
tp2145
a(I16
I9
I5
tp2146
a(I16
I10
I5
tp2147
a(I16
I11
I5
tp2148
a(I16
I12
I5
tp2149
a(I16
I13
I5
tp2150
a(I16
I14
I5
tp2151
a(I16
I15
I5
tp2152
a(I16
I16
I5
tp2153
a(I16
I18
I5
tp2154
a(I16
I19
I5
tp2155
a(I16
I20
I5
tp2156
a(I16
I21
I5
tp2157
a(I17
I2
I5
tp2158
a(I17
I3
I5
tp2159
a(I17
I4
I5
tp2160
a(I17
I5
I5
tp2161
a(I17
I6
I5
tp2162
a(I17
I7
I5
tp2163
a(I17
I8
I5
tp2164
a(I17
I9
I5
tp2165
a(I17
I10
I5
tp2166
a(I17
I11
I5
tp2167
a(I17
I12
I5
tp2168
a(I17
I13
I5
tp2169
a(I17
I14
I5
tp2170
a(I17
I15
I5
tp2171
a(I17
I16
I5
tp2172
a(I17
I17
I5
tp2173
a(I17
I18
I5
tp2174
a(I17
I19
I5
tp2175
a(I18
I1
I5
tp2176
a(I18
I2
I5
tp2177
a(I18
I3
I5
tp2178
a(I18
I4
I5
tp2179
a(I18
I5
I5
tp2180
a(I18
I6
I5
tp2181
a(I18
I7
I5
tp2182
a(I18
I8
I5
tp2183
a(I18
I9
I5
tp2184
a(I18
I10
I5
tp2185
a(I18
I11
I5
tp2186
a(I18
I12
I5
tp2187
a(I18
I13
I5
tp2188
a(I18
I15
I5
tp2189
a(I18
I16
I5
tp2190
a(I18
I17
I5
tp2191
a(I18
I18
I5
tp2192
a(I18
I19
I5
tp2193
a(I18
I22
I5
tp2194
a(I18
I23
I5
tp2195
a(I18
I25
I5
tp2196
a(I18
I26
I5
tp2197
a(I19
I2
I5
tp2198
a(I19
I3
I5
tp2199
a(I19
I4
I5
tp2200
a(I19
I5
I5
tp2201
a(I19
I6
I5
tp2202
a(I19
I7
I5
tp2203
a(I19
I8
I5
tp2204
a(I19
I9
I5
tp2205
a(I19
I10
I5
tp2206
a(I19
I12
I5
tp2207
a(I19
I13
I5
tp2208
a(I19
I14
I5
tp2209
a(I19
I15
I5
tp2210
a(I19
I16
I5
tp2211
a(I19
I17
I5
tp2212
a(I19
I18
I5
tp2213
a(I19
I19
I5
tp2214
a(I19
I20
I5
tp2215
a(I19
I21
I5
tp2216
a(I19
I22
I5
tp2217
a(I19
I24
I5
tp2218
a(I19
I25
I5
tp2219
a(I20
I1
I5
tp2220
a(I20
I2
I5
tp2221
a(I20
I3
I5
tp2222
a(I20
I4
I5
tp2223
a(I20
I5
I5
tp2224
a(I20
I6
I5
tp2225
a(I20
I7
I5
tp2226
a(I20
I8
I5
tp2227
a(I20
I9
I5
tp2228
a(I20
I10
I5
tp2229
a(I20
I11
I5
tp2230
a(I20
I12
I5
tp2231
a(I20
I13
I5
tp2232
a(I20
I14
I5
tp2233
a(I20
I15
I5
tp2234
a(I20
I16
I5
tp2235
a(I20
I17
I5
tp2236
a(I20
I18
I5
tp2237
a(I20
I19
I5
tp2238
a(I20
I20
I5
tp2239
a(I20
I21
I5
tp2240
a(I20
I22
I5
tp2241
a(I21
I2
I5
tp2242
a(I21
I3
I5
tp2243
a(I21
I4
I5
tp2244
a(I21
I5
I5
tp2245
a(I21
I6
I5
tp2246
a(I21
I7
I5
tp2247
a(I21
I8
I5
tp2248
a(I21
I9
I5
tp2249
a(I21
I10
I5
tp2250
a(I21
I11
I5
tp2251
a(I21
I12
I5
tp2252
a(I21
I13
I5
tp2253
a(I21
I14
I5
tp2254
a(I21
I15
I5
tp2255
a(I21
I16
I5
tp2256
a(I21
I17
I5
tp2257
a(I21
I18
I5
tp2258
a(I21
I19
I5
tp2259
a(I21
I20
I5
tp2260
a(I21
I21
I5
tp2261
a(I22
I0
I5
tp2262
a(I22
I2
I5
tp2263
a(I22
I3
I5
tp2264
a(I22
I4
I5
tp2265
a(I22
I5
I5
tp2266
a(I22
I6
I5
tp2267
a(I22
I7
I5
tp2268
a(I22
I8
I5
tp2269
a(I22
I9
I5
tp2270
a(I22
I10
I5
tp2271
a(I22
I11
I5
tp2272
a(I22
I12
I5
tp2273
a(I22
I13
I5
tp2274
a(I22
I14
I5
tp2275
a(I22
I15
I5
tp2276
a(I22
I16
I5
tp2277
a(I22
I17
I5
tp2278
a(I22
I18
I5
tp2279
a(I22
I19
I5
tp2280
a(I22
I21
I5
tp2281
a(I22
I22
I5
tp2282
a(I22
I24
I5
tp2283
a(I23
I2
I5
tp2284
a(I23
I3
I5
tp2285
a(I23
I4
I5
tp2286
a(I23
I5
I5
tp2287
a(I23
I6
I5
tp2288
a(I23
I7
I5
tp2289
a(I23
I8
I5
tp2290
a(I23
I9
I5
tp2291
a(I23
I10
I5
tp2292
a(I23
I12
I5
tp2293
a(I23
I13
I5
tp2294
a(I23
I15
I5
tp2295
a(I23
I16
I5
tp2296
a(I23
I17
I5
tp2297
a(I23
I19
I5
tp2298
a(I23
I20
I5
tp2299
a(I24
I1
I5
tp2300
a(I24
I2
I5
tp2301
a(I24
I3
I5
tp2302
a(I24
I4
I5
tp2303
a(I24
I5
I5
tp2304
a(I24
I6
I5
tp2305
a(I24
I7
I5
tp2306
a(I24
I8
I5
tp2307
a(I24
I9
I5
tp2308
a(I24
I10
I5
tp2309
a(I24
I11
I5
tp2310
a(I24
I12
I5
tp2311
a(I24
I13
I5
tp2312
a(I24
I14
I5
tp2313
a(I24
I15
I5
tp2314
a(I25
I2
I5
tp2315
a(I25
I3
I5
tp2316
a(I25
I4
I5
tp2317
a(I25
I5
I5
tp2318
a(I25
I6
I5
tp2319
a(I25
I7
I5
tp2320
a(I25
I8
I5
tp2321
a(I25
I9
I5
tp2322
a(I26
I1
I5
tp2323
a(I26
I2
I5
tp2324
a(I26
I3
I5
tp2325
a(I26
I4
I5
tp2326
a(I26
I5
I5
tp2327
a(I26
I6
I5
tp2328
a(I26
I7
I5
tp2329
a(I26
I8
I5
tp2330
a(I27
I0
I5
tp2331
a(I27
I1
I5
tp2332
a(I27
I2
I5
tp2333
a(I27
I3
I5
tp2334
a(I27
I4
I5
tp2335
a(I27
I5
I5
tp2336
a(I27
I6
I5
tp2337
a(I27
I7
I5
tp2338
a(I28
I0
I5
tp2339
a(I28
I2
I5
tp2340
a(I28
I3
I5
tp2341
a(I28
I5
I5
tp2342
a(I28
I6
I5
tp2343
a(I29
I1
I5
tp2344
a(I29
I4
I5
tp2345
a(I35
I13
I5
tp2346
a(I35
I14
I5
tp2347
a(I36
I0
I5
tp2348
a(I36
I3
I5
tp2349
a(I37
I20
I5
tp2350
a(I37
I31
I5
tp2351
a(I37
I50
I5
tp2352
a(I37
I62
I5
tp2353
a(I37
I63
I5
tp2354
a(I37
I64
I5
tp2355
a(I37
I65
I5
tp2356
a(I37
I66
I5
tp2357
a(I37
I67
I5
tp2358
a(I37
I68
I5
tp2359
a(I37
I69
I5
tp2360
a(I37
I70
I5
tp2361
a(I37
I71
I5
tp2362
a(I37
I72
I5
tp2363
a(I37
I73
I5
tp2364
a(I37
I74
I5
tp2365
a(I37
I75
I5
tp2366
a(I37
I76
I5
tp2367
a(I37
I77
I5
tp2368
a(I37
I78
I5
tp2369
a(I37
I79
I5
tp2370
a(I37
I80
I5
tp2371
a(I37
I81
I5
tp2372
a(I37
I83
I5
tp2373
a(I37
I84
I5
tp2374
a(I37
I87
I5
tp2375
a(I37
I88
I5
tp2376
a(I37
I90
I5
tp2377
a(I38
I29
I5
tp2378
a(I38
I30
I5
tp2379
a(I38
I33
I5
tp2380
a(I38
I49
I5
tp2381
a(I38
I92
I5
tp2382
a(I38
I93
I5
tp2383
a(I38
I94
I5
tp2384
a(I38
I95
I5
tp2385
a(I39
I52
I5
tp2386
a(I39
I54
I5
tp2387
a(I39
I55
I5
tp2388
a(I40
I33
I5
tp2389
a(I40
I35
I5
tp2390
a(I0
I2
I6
tp2391
a(I0
I4
I6
tp2392
a(I1
I0
I6
tp2393
a(I1
I2
I6
tp2394
a(I1
I23
I6
tp2395
a(I1
I26
I6
tp2396
a(I1
I40
I6
tp2397
a(I1
I42
I6
tp2398
a(I2
I0
I6
tp2399
a(I2
I2
I6
tp2400
a(I2
I16
I6
tp2401
a(I2
I53
I6
tp2402
a(I2
I55
I6
tp2403
a(I2
I57
I6
tp2404
a(I2
I95
I6
tp2405
a(I2
I97
I6
tp2406
a(I2
I99
I6
tp2407
a(I3
I16
I6
tp2408
a(I3
I18
I6
tp2409
a(I3
I20
I6
tp2410
a(I3
I23
I6
tp2411
a(I9
I4
I6
tp2412
a(I9
I10
I6
tp2413
a(I9
I12
I6
tp2414
a(I9
I13
I6
tp2415
a(I9
I14
I6
tp2416
a(I9
I15
I6
tp2417
a(I9
I16
I6
tp2418
a(I9
I17
I6
tp2419
a(I9
I18
I6
tp2420
a(I9
I19
I6
tp2421
a(I9
I20
I6
tp2422
a(I9
I21
I6
tp2423
a(I9
I23
I6
tp2424
a(I9
I24
I6
tp2425
a(I9
I26
I6
tp2426
a(I10
I5
I6
tp2427
a(I10
I6
I6
tp2428
a(I10
I7
I6
tp2429
a(I10
I10
I6
tp2430
a(I10
I11
I6
tp2431
a(I10
I12
I6
tp2432
a(I10
I13
I6
tp2433
a(I10
I14
I6
tp2434
a(I10
I15
I6
tp2435
a(I10
I16
I6
tp2436
a(I10
I17
I6
tp2437
a(I10
I18
I6
tp2438
a(I10
I19
I6
tp2439
a(I10
I20
I6
tp2440
a(I10
I21
I6
tp2441
a(I10
I22
I6
tp2442
a(I10
I23
I6
tp2443
a(I10
I24
I6
tp2444
a(I10
I28
I6
tp2445
a(I10
I30
I6
tp2446
a(I11
I0
I6
tp2447
a(I11
I10
I6
tp2448
a(I11
I11
I6
tp2449
a(I11
I12
I6
tp2450
a(I11
I13
I6
tp2451
a(I11
I14
I6
tp2452
a(I11
I15
I6
tp2453
a(I11
I16
I6
tp2454
a(I11
I18
I6
tp2455
a(I11
I19
I6
tp2456
a(I11
I20
I6
tp2457
a(I11
I21
I6
tp2458
a(I11
I22
I6
tp2459
a(I11
I23
I6
tp2460
a(I11
I25
I6
tp2461
a(I11
I26
I6
tp2462
a(I11
I27
I6
tp2463
a(I11
I28
I6
tp2464
a(I11
I29
I6
tp2465
a(I11
I30
I6
tp2466
a(I11
I31
I6
tp2467
a(I12
I1
I6
tp2468
a(I12
I10
I6
tp2469
a(I12
I11
I6
tp2470
a(I12
I12
I6
tp2471
a(I12
I13
I6
tp2472
a(I12
I14
I6
tp2473
a(I12
I15
I6
tp2474
a(I12
I17
I6
tp2475
a(I12
I18
I6
tp2476
a(I12
I20
I6
tp2477
a(I12
I21
I6
tp2478
a(I12
I22
I6
tp2479
a(I12
I23
I6
tp2480
a(I12
I25
I6
tp2481
a(I12
I26
I6
tp2482
a(I12
I27
I6
tp2483
a(I12
I28
I6
tp2484
a(I12
I30
I6
tp2485
a(I12
I31
I6
tp2486
a(I13
I0
I6
tp2487
a(I13
I1
I6
tp2488
a(I13
I10
I6
tp2489
a(I13
I11
I6
tp2490
a(I13
I12
I6
tp2491
a(I13
I13
I6
tp2492
a(I13
I14
I6
tp2493
a(I13
I15
I6
tp2494
a(I13
I16
I6
tp2495
a(I13
I17
I6
tp2496
a(I13
I18
I6
tp2497
a(I13
I19
I6
tp2498
a(I13
I20
I6
tp2499
a(I13
I22
I6
tp2500
a(I13
I24
I6
tp2501
a(I13
I25
I6
tp2502
a(I13
I26
I6
tp2503
a(I13
I27
I6
tp2504
a(I13
I28
I6
tp2505
a(I14
I0
I6
tp2506
a(I14
I1
I6
tp2507
a(I14
I9
I6
tp2508
a(I14
I11
I6
tp2509
a(I14
I12
I6
tp2510
a(I14
I13
I6
tp2511
a(I14
I14
I6
tp2512
a(I14
I15
I6
tp2513
a(I14
I16
I6
tp2514
a(I14
I17
I6
tp2515
a(I14
I18
I6
tp2516
a(I14
I19
I6
tp2517
a(I14
I20
I6
tp2518
a(I14
I22
I6
tp2519
a(I14
I23
I6
tp2520
a(I14
I24
I6
tp2521
a(I14
I25
I6
tp2522
a(I14
I26
I6
tp2523
a(I14
I27
I6
tp2524
a(I14
I28
I6
tp2525
a(I14
I31
I6
tp2526
a(I15
I0
I6
tp2527
a(I15
I1
I6
tp2528
a(I15
I8
I6
tp2529
a(I15
I10
I6
tp2530
a(I15
I11
I6
tp2531
a(I15
I12
I6
tp2532
a(I15
I13
I6
tp2533
a(I15
I14
I6
tp2534
a(I15
I15
I6
tp2535
a(I15
I16
I6
tp2536
a(I15
I17
I6
tp2537
a(I15
I19
I6
tp2538
a(I15
I20
I6
tp2539
a(I15
I21
I6
tp2540
a(I15
I22
I6
tp2541
a(I15
I24
I6
tp2542
a(I15
I25
I6
tp2543
a(I15
I26
I6
tp2544
a(I15
I27
I6
tp2545
a(I16
I0
I6
tp2546
a(I16
I1
I6
tp2547
a(I16
I8
I6
tp2548
a(I16
I9
I6
tp2549
a(I16
I10
I6
tp2550
a(I16
I11
I6
tp2551
a(I16
I12
I6
tp2552
a(I16
I13
I6
tp2553
a(I16
I14
I6
tp2554
a(I16
I15
I6
tp2555
a(I16
I16
I6
tp2556
a(I16
I17
I6
tp2557
a(I16
I18
I6
tp2558
a(I16
I19
I6
tp2559
a(I16
I20
I6
tp2560
a(I16
I21
I6
tp2561
a(I16
I22
I6
tp2562
a(I16
I25
I6
tp2563
a(I16
I26
I6
tp2564
a(I17
I1
I6
tp2565
a(I17
I6
I6
tp2566
a(I17
I7
I6
tp2567
a(I17
I8
I6
tp2568
a(I17
I9
I6
tp2569
a(I17
I10
I6
tp2570
a(I17
I11
I6
tp2571
a(I17
I12
I6
tp2572
a(I17
I13
I6
tp2573
a(I17
I14
I6
tp2574
a(I17
I15
I6
tp2575
a(I17
I16
I6
tp2576
a(I17
I17
I6
tp2577
a(I17
I19
I6
tp2578
a(I17
I20
I6
tp2579
a(I17
I21
I6
tp2580
a(I17
I22
I6
tp2581
a(I17
I23
I6
tp2582
a(I17
I24
I6
tp2583
a(I17
I25
I6
tp2584
a(I17
I26
I6
tp2585
a(I17
I27
I6
tp2586
a(I18
I1
I6
tp2587
a(I18
I8
I6
tp2588
a(I18
I9
I6
tp2589
a(I18
I10
I6
tp2590
a(I18
I11
I6
tp2591
a(I18
I12
I6
tp2592
a(I18
I13
I6
tp2593
a(I18
I14
I6
tp2594
a(I18
I15
I6
tp2595
a(I18
I16
I6
tp2596
a(I18
I17
I6
tp2597
a(I18
I18
I6
tp2598
a(I18
I19
I6
tp2599
a(I18
I20
I6
tp2600
a(I18
I21
I6
tp2601
a(I18
I22
I6
tp2602
a(I18
I23
I6
tp2603
a(I18
I24
I6
tp2604
a(I18
I25
I6
tp2605
a(I18
I31
I6
tp2606
a(I19
I0
I6
tp2607
a(I19
I8
I6
tp2608
a(I19
I9
I6
tp2609
a(I19
I10
I6
tp2610
a(I19
I11
I6
tp2611
a(I19
I12
I6
tp2612
a(I19
I13
I6
tp2613
a(I19
I14
I6
tp2614
a(I19
I15
I6
tp2615
a(I19
I16
I6
tp2616
a(I19
I17
I6
tp2617
a(I19
I18
I6
tp2618
a(I19
I21
I6
tp2619
a(I19
I22
I6
tp2620
a(I19
I23
I6
tp2621
a(I19
I24
I6
tp2622
a(I19
I25
I6
tp2623
a(I19
I27
I6
tp2624
a(I19
I28
I6
tp2625
a(I19
I30
I6
tp2626
a(I19
I31
I6
tp2627
a(I20
I0
I6
tp2628
a(I20
I3
I6
tp2629
a(I20
I8
I6
tp2630
a(I20
I9
I6
tp2631
a(I20
I10
I6
tp2632
a(I20
I11
I6
tp2633
a(I20
I12
I6
tp2634
a(I20
I13
I6
tp2635
a(I20
I14
I6
tp2636
a(I20
I15
I6
tp2637
a(I20
I16
I6
tp2638
a(I20
I17
I6
tp2639
a(I20
I18
I6
tp2640
a(I20
I20
I6
tp2641
a(I20
I21
I6
tp2642
a(I20
I22
I6
tp2643
a(I20
I23
I6
tp2644
a(I20
I24
I6
tp2645
a(I20
I26
I6
tp2646
a(I20
I28
I6
tp2647
a(I20
I29
I6
tp2648
a(I20
I30
I6
tp2649
a(I21
I0
I6
tp2650
a(I21
I1
I6
tp2651
a(I21
I3
I6
tp2652
a(I21
I4
I6
tp2653
a(I21
I6
I6
tp2654
a(I21
I7
I6
tp2655
a(I21
I8
I6
tp2656
a(I21
I9
I6
tp2657
a(I21
I10
I6
tp2658
a(I21
I11
I6
tp2659
a(I21
I12
I6
tp2660
a(I21
I13
I6
tp2661
a(I21
I14
I6
tp2662
a(I21
I15
I6
tp2663
a(I21
I16
I6
tp2664
a(I21
I17
I6
tp2665
a(I21
I18
I6
tp2666
a(I21
I19
I6
tp2667
a(I21
I20
I6
tp2668
a(I21
I21
I6
tp2669
a(I21
I22
I6
tp2670
a(I21
I23
I6
tp2671
a(I21
I24
I6
tp2672
a(I21
I25
I6
tp2673
a(I21
I26
I6
tp2674
a(I21
I31
I6
tp2675
a(I22
I0
I6
tp2676
a(I22
I1
I6
tp2677
a(I22
I2
I6
tp2678
a(I22
I7
I6
tp2679
a(I22
I8
I6
tp2680
a(I22
I9
I6
tp2681
a(I22
I10
I6
tp2682
a(I22
I11
I6
tp2683
a(I22
I12
I6
tp2684
a(I22
I13
I6
tp2685
a(I22
I14
I6
tp2686
a(I22
I15
I6
tp2687
a(I22
I16
I6
tp2688
a(I22
I17
I6
tp2689
a(I22
I18
I6
tp2690
a(I22
I19
I6
tp2691
a(I22
I20
I6
tp2692
a(I22
I21
I6
tp2693
a(I22
I24
I6
tp2694
a(I22
I25
I6
tp2695
a(I22
I26
I6
tp2696
a(I22
I30
I6
tp2697
a(I23
I0
I6
tp2698
a(I23
I2
I6
tp2699
a(I23
I3
I6
tp2700
a(I23
I7
I6
tp2701
a(I23
I8
I6
tp2702
a(I23
I9
I6
tp2703
a(I23
I10
I6
tp2704
a(I23
I11
I6
tp2705
a(I23
I12
I6
tp2706
a(I23
I13
I6
tp2707
a(I23
I14
I6
tp2708
a(I23
I15
I6
tp2709
a(I23
I16
I6
tp2710
a(I23
I17
I6
tp2711
a(I23
I18
I6
tp2712
a(I23
I19
I6
tp2713
a(I23
I20
I6
tp2714
a(I23
I21
I6
tp2715
a(I23
I22
I6
tp2716
a(I23
I23
I6
tp2717
a(I23
I24
I6
tp2718
a(I23
I26
I6
tp2719
a(I23
I27
I6
tp2720
a(I23
I28
I6
tp2721
a(I24
I3
I6
tp2722
a(I24
I6
I6
tp2723
a(I24
I8
I6
tp2724
a(I24
I9
I6
tp2725
a(I24
I10
I6
tp2726
a(I24
I11
I6
tp2727
a(I24
I12
I6
tp2728
a(I24
I13
I6
tp2729
a(I24
I14
I6
tp2730
a(I24
I15
I6
tp2731
a(I25
I0
I6
tp2732
a(I25
I1
I6
tp2733
a(I25
I2
I6
tp2734
a(I25
I5
I6
tp2735
a(I25
I8
I6
tp2736
a(I25
I9
I6
tp2737
a(I25
I10
I6
tp2738
a(I25
I11
I6
tp2739
a(I25
I12
I6
tp2740
a(I25
I13
I6
tp2741
a(I25
I14
I6
tp2742
a(I25
I15
I6
tp2743
a(I26
I0
I6
tp2744
a(I26
I1
I6
tp2745
a(I26
I2
I6
tp2746
a(I26
I3
I6
tp2747
a(I26
I7
I6
tp2748
a(I26
I8
I6
tp2749
a(I26
I9
I6
tp2750
a(I26
I10
I6
tp2751
a(I26
I11
I6
tp2752
a(I26
I12
I6
tp2753
a(I26
I13
I6
tp2754
a(I26
I14
I6
tp2755
a(I27
I2
I6
tp2756
a(I27
I6
I6
tp2757
a(I27
I7
I6
tp2758
a(I27
I8
I6
tp2759
a(I27
I9
I6
tp2760
a(I27
I10
I6
tp2761
a(I27
I11
I6
tp2762
a(I27
I12
I6
tp2763
a(I27
I13
I6
tp2764
a(I28
I1
I6
tp2765
a(I28
I3
I6
tp2766
a(I28
I4
I6
tp2767
a(I28
I5
I6
tp2768
a(I28
I6
I6
tp2769
a(I28
I7
I6
tp2770
a(I28
I8
I6
tp2771
a(I28
I9
I6
tp2772
a(I28
I10
I6
tp2773
a(I28
I12
I6
tp2774
a(I29
I1
I6
tp2775
a(I31
I0
I6
tp2776
a(I31
I1
I6
tp2777
a(I32
I0
I6
tp2778
a(I32
I1
I6
tp2779
a(I32
I2
I6
tp2780
a(I33
I1
I6
tp2781
a(I34
I2
I6
tp2782
a(I34
I3
I6
tp2783
a(I34
I4
I6
tp2784
a(I35
I6
I6
tp2785
a(I36
I9
I6
tp2786
a(I36
I22
I6
tp2787
a(I37
I24
I6
tp2788
a(I37
I34
I6
tp2789
a(I37
I35
I6
tp2790
a(I37
I55
I6
tp2791
a(I37
I68
I6
tp2792
a(I37
I70
I6
tp2793
a(I37
I72
I6
tp2794
a(I37
I74
I6
tp2795
a(I37
I76
I6
tp2796
a(I37
I78
I6
tp2797
a(I37
I80
I6
tp2798
a(I37
I82
I6
tp2799
a(I37
I84
I6
tp2800
a(I37
I86
I6
tp2801
a(I37
I90
I6
tp2802
a(I37
I97
I6
tp2803
a(I37
I98
I6
tp2804
a(I37
I99
I6
tp2805
a(I38
I27
I6
tp2806
a(I38
I35
I6
tp2807
a(I38
I56
I6
tp2808
a(I38
I57
I6
tp2809
a(I39
I37
I6
tp2810
a(I39
I39
I6
tp2811
a(I39
I58
I6
tp2812
a(I39
I59
I6
tp2813
a(I40
I39
I6
tp2814
a(I0
I2
I7
tp2815
a(I0
I28
I7
tp2816
a(I0
I29
I7
tp2817
a(I0
I59
I7
tp2818
a(I0
I60
I7
tp2819
a(I1
I1
I7
tp2820
a(I1
I20
I7
tp2821
a(I1
I38
I7
tp2822
a(I1
I39
I7
tp2823
a(I1
I56
I7
tp2824
a(I1
I57
I7
tp2825
a(I2
I14
I7
tp2826
a(I8
I0
I7
tp2827
a(I8
I2
I7
tp2828
a(I8
I12
I7
tp2829
a(I8
I13
I7
tp2830
a(I8
I16
I7
tp2831
a(I8
I18
I7
tp2832
a(I8
I20
I7
tp2833
a(I8
I22
I7
tp2834
a(I8
I23
I7
tp2835
a(I8
I24
I7
tp2836
a(I8
I26
I7
tp2837
a(I9
I9
I7
tp2838
a(I9
I10
I7
tp2839
a(I9
I11
I7
tp2840
a(I9
I12
I7
tp2841
a(I9
I13
I7
tp2842
a(I9
I14
I7
tp2843
a(I9
I15
I7
tp2844
a(I9
I16
I7
tp2845
a(I9
I17
I7
tp2846
a(I9
I18
I7
tp2847
a(I9
I19
I7
tp2848
a(I9
I20
I7
tp2849
a(I9
I21
I7
tp2850
a(I9
I22
I7
tp2851
a(I9
I23
I7
tp2852
a(I9
I25
I7
tp2853
a(I9
I26
I7
tp2854
a(I9
I28
I7
tp2855
a(I10
I9
I7
tp2856
a(I10
I10
I7
tp2857
a(I10
I11
I7
tp2858
a(I10
I12
I7
tp2859
a(I10
I13
I7
tp2860
a(I10
I14
I7
tp2861
a(I10
I15
I7
tp2862
a(I10
I16
I7
tp2863
a(I10
I17
I7
tp2864
a(I10
I18
I7
tp2865
a(I10
I19
I7
tp2866
a(I10
I20
I7
tp2867
a(I10
I21
I7
tp2868
a(I10
I22
I7
tp2869
a(I10
I23
I7
tp2870
a(I10
I24
I7
tp2871
a(I10
I25
I7
tp2872
a(I11
I1
I7
tp2873
a(I11
I9
I7
tp2874
a(I11
I10
I7
tp2875
a(I11
I11
I7
tp2876
a(I11
I12
I7
tp2877
a(I11
I13
I7
tp2878
a(I11
I14
I7
tp2879
a(I11
I15
I7
tp2880
a(I11
I16
I7
tp2881
a(I11
I17
I7
tp2882
a(I11
I18
I7
tp2883
a(I11
I19
I7
tp2884
a(I11
I20
I7
tp2885
a(I11
I21
I7
tp2886
a(I11
I22
I7
tp2887
a(I11
I24
I7
tp2888
a(I11
I25
I7
tp2889
a(I11
I26
I7
tp2890
a(I12
I8
I7
tp2891
a(I12
I9
I7
tp2892
a(I12
I10
I7
tp2893
a(I12
I11
I7
tp2894
a(I12
I12
I7
tp2895
a(I12
I13
I7
tp2896
a(I12
I14
I7
tp2897
a(I12
I15
I7
tp2898
a(I12
I16
I7
tp2899
a(I12
I17
I7
tp2900
a(I12
I18
I7
tp2901
a(I12
I19
I7
tp2902
a(I12
I20
I7
tp2903
a(I12
I21
I7
tp2904
a(I12
I23
I7
tp2905
a(I12
I24
I7
tp2906
a(I12
I25
I7
tp2907
a(I12
I26
I7
tp2908
a(I12
I27
I7
tp2909
a(I12
I29
I7
tp2910
a(I13
I5
I7
tp2911
a(I13
I7
I7
tp2912
a(I13
I8
I7
tp2913
a(I13
I9
I7
tp2914
a(I13
I10
I7
tp2915
a(I13
I11
I7
tp2916
a(I13
I12
I7
tp2917
a(I13
I14
I7
tp2918
a(I13
I15
I7
tp2919
a(I13
I16
I7
tp2920
a(I13
I17
I7
tp2921
a(I13
I19
I7
tp2922
a(I13
I20
I7
tp2923
a(I13
I23
I7
tp2924
a(I13
I25
I7
tp2925
a(I13
I26
I7
tp2926
a(I13
I27
I7
tp2927
a(I13
I29
I7
tp2928
a(I13
I30
I7
tp2929
a(I14
I0
I7
tp2930
a(I14
I6
I7
tp2931
a(I14
I7
I7
tp2932
a(I14
I8
I7
tp2933
a(I14
I9
I7
tp2934
a(I14
I10
I7
tp2935
a(I14
I11
I7
tp2936
a(I14
I13
I7
tp2937
a(I14
I14
I7
tp2938
a(I14
I15
I7
tp2939
a(I14
I17
I7
tp2940
a(I14
I18
I7
tp2941
a(I14
I19
I7
tp2942
a(I14
I20
I7
tp2943
a(I14
I21
I7
tp2944
a(I14
I22
I7
tp2945
a(I14
I23
I7
tp2946
a(I14
I25
I7
tp2947
a(I15
I6
I7
tp2948
a(I15
I7
I7
tp2949
a(I15
I8
I7
tp2950
a(I15
I9
I7
tp2951
a(I15
I10
I7
tp2952
a(I15
I11
I7
tp2953
a(I15
I12
I7
tp2954
a(I15
I13
I7
tp2955
a(I15
I14
I7
tp2956
a(I15
I16
I7
tp2957
a(I15
I17
I7
tp2958
a(I15
I18
I7
tp2959
a(I15
I19
I7
tp2960
a(I15
I20
I7
tp2961
a(I15
I22
I7
tp2962
a(I15
I24
I7
tp2963
a(I15
I25
I7
tp2964
a(I16
I0
I7
tp2965
a(I16
I5
I7
tp2966
a(I16
I6
I7
tp2967
a(I16
I7
I7
tp2968
a(I16
I8
I7
tp2969
a(I16
I9
I7
tp2970
a(I16
I10
I7
tp2971
a(I16
I11
I7
tp2972
a(I16
I12
I7
tp2973
a(I16
I14
I7
tp2974
a(I16
I15
I7
tp2975
a(I16
I16
I7
tp2976
a(I16
I17
I7
tp2977
a(I16
I18
I7
tp2978
a(I16
I19
I7
tp2979
a(I16
I20
I7
tp2980
a(I16
I21
I7
tp2981
a(I16
I23
I7
tp2982
a(I16
I24
I7
tp2983
a(I16
I25
I7
tp2984
a(I16
I30
I7
tp2985
a(I17
I5
I7
tp2986
a(I17
I6
I7
tp2987
a(I17
I7
I7
tp2988
a(I17
I8
I7
tp2989
a(I17
I9
I7
tp2990
a(I17
I10
I7
tp2991
a(I17
I11
I7
tp2992
a(I17
I12
I7
tp2993
a(I17
I13
I7
tp2994
a(I17
I14
I7
tp2995
a(I17
I15
I7
tp2996
a(I17
I16
I7
tp2997
a(I17
I17
I7
tp2998
a(I17
I19
I7
tp2999
a(I17
I20
I7
tp3000
a(I17
I21
I7
tp3001
a(I17
I23
I7
tp3002
a(I17
I24
I7
tp3003
a(I17
I25
I7
tp3004
a(I17
I26
I7
tp3005
a(I17
I27
I7
tp3006
a(I17
I28
I7
tp3007
a(I17
I30
I7
tp3008
a(I18
I0
I7
tp3009
a(I18
I5
I7
tp3010
a(I18
I6
I7
tp3011
a(I18
I7
I7
tp3012
a(I18
I8
I7
tp3013
a(I18
I9
I7
tp3014
a(I18
I10
I7
tp3015
a(I18
I11
I7
tp3016
a(I18
I12
I7
tp3017
a(I18
I13
I7
tp3018
a(I18
I14
I7
tp3019
a(I18
I15
I7
tp3020
a(I18
I16
I7
tp3021
a(I18
I17
I7
tp3022
a(I18
I18
I7
tp3023
a(I18
I19
I7
tp3024
a(I18
I20
I7
tp3025
a(I18
I21
I7
tp3026
a(I18
I22
I7
tp3027
a(I18
I23
I7
tp3028
a(I18
I24
I7
tp3029
a(I18
I25
I7
tp3030
a(I18
I26
I7
tp3031
a(I19
I0
I7
tp3032
a(I19
I1
I7
tp3033
a(I19
I3
I7
tp3034
a(I19
I5
I7
tp3035
a(I19
I6
I7
tp3036
a(I19
I7
I7
tp3037
a(I19
I8
I7
tp3038
a(I19
I9
I7
tp3039
a(I19
I10
I7
tp3040
a(I19
I11
I7
tp3041
a(I19
I12
I7
tp3042
a(I19
I13
I7
tp3043
a(I19
I14
I7
tp3044
a(I19
I15
I7
tp3045
a(I19
I16
I7
tp3046
a(I19
I17
I7
tp3047
a(I19
I18
I7
tp3048
a(I19
I20
I7
tp3049
a(I19
I21
I7
tp3050
a(I19
I22
I7
tp3051
a(I19
I23
I7
tp3052
a(I19
I24
I7
tp3053
a(I19
I26
I7
tp3054
a(I19
I27
I7
tp3055
a(I19
I28
I7
tp3056
a(I20
I0
I7
tp3057
a(I20
I1
I7
tp3058
a(I20
I6
I7
tp3059
a(I20
I7
I7
tp3060
a(I20
I8
I7
tp3061
a(I20
I9
I7
tp3062
a(I20
I10
I7
tp3063
a(I20
I11
I7
tp3064
a(I20
I12
I7
tp3065
a(I20
I13
I7
tp3066
a(I20
I14
I7
tp3067
a(I20
I15
I7
tp3068
a(I20
I16
I7
tp3069
a(I20
I17
I7
tp3070
a(I20
I19
I7
tp3071
a(I20
I20
I7
tp3072
a(I20
I21
I7
tp3073
a(I20
I22
I7
tp3074
a(I20
I23
I7
tp3075
a(I20
I24
I7
tp3076
a(I20
I25
I7
tp3077
a(I20
I27
I7
tp3078
a(I20
I29
I7
tp3079
a(I21
I0
I7
tp3080
a(I21
I6
I7
tp3081
a(I21
I7
I7
tp3082
a(I21
I8
I7
tp3083
a(I21
I9
I7
tp3084
a(I21
I10
I7
tp3085
a(I21
I11
I7
tp3086
a(I21
I12
I7
tp3087
a(I21
I13
I7
tp3088
a(I21
I14
I7
tp3089
a(I21
I15
I7
tp3090
a(I21
I16
I7
tp3091
a(I21
I17
I7
tp3092
a(I21
I18
I7
tp3093
a(I21
I19
I7
tp3094
a(I21
I20
I7
tp3095
a(I21
I21
I7
tp3096
a(I21
I23
I7
tp3097
a(I21
I24
I7
tp3098
a(I21
I27
I7
tp3099
a(I22
I0
I7
tp3100
a(I22
I2
I7
tp3101
a(I22
I6
I7
tp3102
a(I22
I7
I7
tp3103
a(I22
I8
I7
tp3104
a(I22
I9
I7
tp3105
a(I22
I10
I7
tp3106
a(I22
I11
I7
tp3107
a(I22
I12
I7
tp3108
a(I22
I13
I7
tp3109
a(I22
I14
I7
tp3110
a(I22
I17
I7
tp3111
a(I22
I19
I7
tp3112
a(I22
I21
I7
tp3113
a(I22
I23
I7
tp3114
a(I22
I24
I7
tp3115
a(I22
I28
I7
tp3116
a(I23
I0
I7
tp3117
a(I23
I1
I7
tp3118
a(I23
I2
I7
tp3119
a(I23
I5
I7
tp3120
a(I23
I6
I7
tp3121
a(I23
I7
I7
tp3122
a(I23
I8
I7
tp3123
a(I23
I9
I7
tp3124
a(I23
I10
I7
tp3125
a(I23
I11
I7
tp3126
a(I23
I12
I7
tp3127
a(I23
I13
I7
tp3128
a(I23
I14
I7
tp3129
a(I24
I1
I7
tp3130
a(I24
I3
I7
tp3131
a(I24
I5
I7
tp3132
a(I24
I6
I7
tp3133
a(I24
I7
I7
tp3134
a(I24
I8
I7
tp3135
a(I24
I9
I7
tp3136
a(I24
I10
I7
tp3137
a(I24
I11
I7
tp3138
a(I24
I12
I7
tp3139
a(I24
I13
I7
tp3140
a(I25
I1
I7
tp3141
a(I25
I6
I7
tp3142
a(I25
I7
I7
tp3143
a(I25
I8
I7
tp3144
a(I25
I9
I7
tp3145
a(I25
I10
I7
tp3146
a(I25
I11
I7
tp3147
a(I25
I12
I7
tp3148
a(I26
I2
I7
tp3149
a(I26
I4
I7
tp3150
a(I26
I5
I7
tp3151
a(I26
I6
I7
tp3152
a(I26
I7
I7
tp3153
a(I26
I8
I7
tp3154
a(I26
I9
I7
tp3155
a(I26
I10
I7
tp3156
a(I26
I11
I7
tp3157
a(I27
I1
I7
tp3158
a(I27
I3
I7
tp3159
a(I27
I4
I7
tp3160
a(I27
I5
I7
tp3161
a(I27
I7
I7
tp3162
a(I27
I8
I7
tp3163
a(I27
I10
I7
tp3164
a(I28
I6
I7
tp3165
a(I28
I8
I7
tp3166
a(I28
I9
I7
tp3167
a(I31
I0
I7
tp3168
a(I32
I1
I7
tp3169
a(I32
I2
I7
tp3170
a(I33
I2
I7
tp3171
a(I33
I5
I7
tp3172
a(I33
I17
I7
tp3173
a(I33
I18
I7
tp3174
a(I34
I4
I7
tp3175
a(I34
I20
I7
tp3176
a(I35
I21
I7
tp3177
a(I35
I22
I7
tp3178
a(I36
I23
I7
tp3179
a(I36
I34
I7
tp3180
a(I36
I53
I7
tp3181
a(I36
I54
I7
tp3182
a(I37
I56
I7
tp3183
a(I37
I57
I7
tp3184
a(I38
I36
I7
tp3185
a(I39
I39
I7
tp3186
a(I0
I25
I8
tp3187
a(I0
I27
I8
tp3188
a(I0
I57
I8
tp3189
a(I1
I11
I8
tp3190
a(I1
I12
I8
tp3191
a(I1
I14
I8
tp3192
a(I1
I15
I8
tp3193
a(I1
I16
I8
tp3194
a(I1
I17
I8
tp3195
a(I1
I18
I8
tp3196
a(I1
I21
I8
tp3197
a(I1
I38
I8
tp3198
a(I1
I54
I8
tp3199
a(I2
I10
I8
tp3200
a(I2
I45
I8
tp3201
a(I2
I48
I8
tp3202
a(I2
I49
I8
tp3203
a(I2
I51
I8
tp3204
a(I2
I90
I8
tp3205
a(I2
I91
I8
tp3206
a(I2
I92
I8
tp3207
a(I2
I93
I8
tp3208
a(I2
I94
I8
tp3209
a(I2
I95
I8
tp3210
a(I2
I96
I8
tp3211
a(I2
I97
I8
tp3212
a(I2
I98
I8
tp3213
a(I2
I99
I8
tp3214
a(I3
I11
I8
tp3215
a(I3
I12
I8
tp3216
a(I8
I8
I8
tp3217
a(I8
I10
I8
tp3218
a(I8
I11
I8
tp3219
a(I8
I12
I8
tp3220
a(I8
I13
I8
tp3221
a(I8
I15
I8
tp3222
a(I8
I17
I8
tp3223
a(I9
I5
I8
tp3224
a(I9
I6
I8
tp3225
a(I9
I7
I8
tp3226
a(I9
I8
I8
tp3227
a(I9
I10
I8
tp3228
a(I9
I11
I8
tp3229
a(I9
I12
I8
tp3230
a(I9
I13
I8
tp3231
a(I9
I14
I8
tp3232
a(I9
I15
I8
tp3233
a(I9
I17
I8
tp3234
a(I9
I18
I8
tp3235
a(I9
I19
I8
tp3236
a(I9
I20
I8
tp3237
a(I9
I21
I8
tp3238
a(I9
I22
I8
tp3239
a(I10
I0
I8
tp3240
a(I10
I1
I8
tp3241
a(I10
I2
I8
tp3242
a(I10
I5
I8
tp3243
a(I10
I6
I8
tp3244
a(I10
I7
I8
tp3245
a(I10
I8
I8
tp3246
a(I10
I9
I8
tp3247
a(I10
I10
I8
tp3248
a(I10
I11
I8
tp3249
a(I10
I12
I8
tp3250
a(I10
I13
I8
tp3251
a(I10
I14
I8
tp3252
a(I10
I15
I8
tp3253
a(I10
I16
I8
tp3254
a(I10
I17
I8
tp3255
a(I10
I20
I8
tp3256
a(I10
I23
I8
tp3257
a(I11
I5
I8
tp3258
a(I11
I6
I8
tp3259
a(I11
I7
I8
tp3260
a(I11
I8
I8
tp3261
a(I11
I9
I8
tp3262
a(I11
I10
I8
tp3263
a(I11
I12
I8
tp3264
a(I11
I13
I8
tp3265
a(I11
I14
I8
tp3266
a(I11
I15
I8
tp3267
a(I11
I16
I8
tp3268
a(I11
I17
I8
tp3269
a(I11
I18
I8
tp3270
a(I11
I19
I8
tp3271
a(I11
I20
I8
tp3272
a(I11
I21
I8
tp3273
a(I11
I22
I8
tp3274
a(I11
I23
I8
tp3275
a(I11
I24
I8
tp3276
a(I11
I25
I8
tp3277
a(I11
I26
I8
tp3278
a(I12
I5
I8
tp3279
a(I12
I6
I8
tp3280
a(I12
I7
I8
tp3281
a(I12
I8
I8
tp3282
a(I12
I9
I8
tp3283
a(I12
I10
I8
tp3284
a(I12
I11
I8
tp3285
a(I12
I12
I8
tp3286
a(I12
I13
I8
tp3287
a(I12
I15
I8
tp3288
a(I12
I16
I8
tp3289
a(I12
I17
I8
tp3290
a(I12
I18
I8
tp3291
a(I12
I19
I8
tp3292
a(I12
I20
I8
tp3293
a(I12
I21
I8
tp3294
a(I12
I22
I8
tp3295
a(I12
I23
I8
tp3296
a(I12
I25
I8
tp3297
a(I12
I26
I8
tp3298
a(I13
I6
I8
tp3299
a(I13
I7
I8
tp3300
a(I13
I8
I8
tp3301
a(I13
I9
I8
tp3302
a(I13
I10
I8
tp3303
a(I13
I11
I8
tp3304
a(I13
I12
I8
tp3305
a(I13
I13
I8
tp3306
a(I13
I14
I8
tp3307
a(I13
I16
I8
tp3308
a(I13
I17
I8
tp3309
a(I13
I18
I8
tp3310
a(I13
I19
I8
tp3311
a(I13
I20
I8
tp3312
a(I13
I22
I8
tp3313
a(I13
I24
I8
tp3314
a(I14
I4
I8
tp3315
a(I14
I5
I8
tp3316
a(I14
I6
I8
tp3317
a(I14
I7
I8
tp3318
a(I14
I8
I8
tp3319
a(I14
I9
I8
tp3320
a(I14
I10
I8
tp3321
a(I14
I12
I8
tp3322
a(I14
I13
I8
tp3323
a(I14
I14
I8
tp3324
a(I14
I15
I8
tp3325
a(I14
I16
I8
tp3326
a(I14
I17
I8
tp3327
a(I14
I18
I8
tp3328
a(I14
I19
I8
tp3329
a(I14
I20
I8
tp3330
a(I14
I21
I8
tp3331
a(I14
I22
I8
tp3332
a(I14
I26
I8
tp3333
a(I15
I3
I8
tp3334
a(I15
I5
I8
tp3335
a(I15
I6
I8
tp3336
a(I15
I7
I8
tp3337
a(I15
I8
I8
tp3338
a(I15
I9
I8
tp3339
a(I15
I10
I8
tp3340
a(I15
I11
I8
tp3341
a(I15
I12
I8
tp3342
a(I15
I13
I8
tp3343
a(I15
I14
I8
tp3344
a(I15
I15
I8
tp3345
a(I15
I16
I8
tp3346
a(I15
I17
I8
tp3347
a(I15
I18
I8
tp3348
a(I15
I19
I8
tp3349
a(I15
I20
I8
tp3350
a(I15
I21
I8
tp3351
a(I15
I22
I8
tp3352
a(I16
I3
I8
tp3353
a(I16
I4
I8
tp3354
a(I16
I5
I8
tp3355
a(I16
I6
I8
tp3356
a(I16
I7
I8
tp3357
a(I16
I8
I8
tp3358
a(I16
I9
I8
tp3359
a(I16
I10
I8
tp3360
a(I16
I11
I8
tp3361
a(I16
I12
I8
tp3362
a(I16
I13
I8
tp3363
a(I16
I14
I8
tp3364
a(I16
I15
I8
tp3365
a(I16
I16
I8
tp3366
a(I16
I17
I8
tp3367
a(I16
I19
I8
tp3368
a(I16
I21
I8
tp3369
a(I17
I1
I8
tp3370
a(I17
I2
I8
tp3371
a(I17
I3
I8
tp3372
a(I17
I4
I8
tp3373
a(I17
I5
I8
tp3374
a(I17
I6
I8
tp3375
a(I17
I7
I8
tp3376
a(I17
I8
I8
tp3377
a(I17
I9
I8
tp3378
a(I17
I11
I8
tp3379
a(I17
I13
I8
tp3380
a(I17
I14
I8
tp3381
a(I17
I15
I8
tp3382
a(I17
I16
I8
tp3383
a(I17
I19
I8
tp3384
a(I17
I20
I8
tp3385
a(I17
I21
I8
tp3386
a(I17
I22
I8
tp3387
a(I18
I3
I8
tp3388
a(I18
I4
I8
tp3389
a(I18
I5
I8
tp3390
a(I18
I6
I8
tp3391
a(I18
I7
I8
tp3392
a(I18
I8
I8
tp3393
a(I18
I9
I8
tp3394
a(I18
I10
I8
tp3395
a(I18
I11
I8
tp3396
a(I18
I12
I8
tp3397
a(I18
I13
I8
tp3398
a(I18
I14
I8
tp3399
a(I18
I15
I8
tp3400
a(I18
I16
I8
tp3401
a(I18
I17
I8
tp3402
a(I18
I18
I8
tp3403
a(I18
I19
I8
tp3404
a(I18
I20
I8
tp3405
a(I18
I21
I8
tp3406
a(I18
I26
I8
tp3407
a(I19
I0
I8
tp3408
a(I19
I3
I8
tp3409
a(I19
I4
I8
tp3410
a(I19
I5
I8
tp3411
a(I19
I6
I8
tp3412
a(I19
I7
I8
tp3413
a(I19
I8
I8
tp3414
a(I19
I9
I8
tp3415
a(I19
I10
I8
tp3416
a(I19
I11
I8
tp3417
a(I19
I12
I8
tp3418
a(I19
I13
I8
tp3419
a(I19
I16
I8
tp3420
a(I19
I17
I8
tp3421
a(I19
I18
I8
tp3422
a(I19
I19
I8
tp3423
a(I19
I21
I8
tp3424
a(I19
I22
I8
tp3425
a(I19
I23
I8
tp3426
a(I19
I25
I8
tp3427
a(I19
I26
I8
tp3428
a(I20
I3
I8
tp3429
a(I20
I4
I8
tp3430
a(I20
I5
I8
tp3431
a(I20
I6
I8
tp3432
a(I20
I7
I8
tp3433
a(I20
I8
I8
tp3434
a(I20
I9
I8
tp3435
a(I20
I10
I8
tp3436
a(I20
I11
I8
tp3437
a(I20
I12
I8
tp3438
a(I20
I13
I8
tp3439
a(I20
I14
I8
tp3440
a(I20
I15
I8
tp3441
a(I20
I16
I8
tp3442
a(I20
I17
I8
tp3443
a(I20
I18
I8
tp3444
a(I20
I19
I8
tp3445
a(I20
I21
I8
tp3446
a(I20
I22
I8
tp3447
a(I20
I23
I8
tp3448
a(I20
I24
I8
tp3449
a(I20
I25
I8
tp3450
a(I21
I1
I8
tp3451
a(I21
I2
I8
tp3452
a(I21
I3
I8
tp3453
a(I21
I4
I8
tp3454
a(I21
I5
I8
tp3455
a(I21
I6
I8
tp3456
a(I21
I7
I8
tp3457
a(I21
I8
I8
tp3458
a(I21
I9
I8
tp3459
a(I21
I11
I8
tp3460
a(I21
I13
I8
tp3461
a(I21
I14
I8
tp3462
a(I21
I15
I8
tp3463
a(I21
I16
I8
tp3464
a(I21
I17
I8
tp3465
a(I21
I18
I8
tp3466
a(I21
I20
I8
tp3467
a(I21
I21
I8
tp3468
a(I21
I22
I8
tp3469
a(I21
I26
I8
tp3470
a(I22
I3
I8
tp3471
a(I22
I4
I8
tp3472
a(I22
I5
I8
tp3473
a(I22
I6
I8
tp3474
a(I22
I7
I8
tp3475
a(I22
I8
I8
tp3476
a(I22
I9
I8
tp3477
a(I22
I10
I8
tp3478
a(I22
I11
I8
tp3479
a(I22
I12
I8
tp3480
a(I22
I13
I8
tp3481
a(I22
I14
I8
tp3482
a(I22
I15
I8
tp3483
a(I22
I16
I8
tp3484
a(I22
I17
I8
tp3485
a(I22
I18
I8
tp3486
a(I22
I19
I8
tp3487
a(I22
I20
I8
tp3488
a(I22
I21
I8
tp3489
a(I22
I25
I8
tp3490
a(I23
I2
I8
tp3491
a(I23
I3
I8
tp3492
a(I23
I4
I8
tp3493
a(I23
I5
I8
tp3494
a(I23
I6
I8
tp3495
a(I23
I7
I8
tp3496
a(I23
I8
I8
tp3497
a(I23
I9
I8
tp3498
a(I23
I10
I8
tp3499
a(I23
I11
I8
tp3500
a(I23
I13
I8
tp3501
a(I23
I14
I8
tp3502
a(I23
I15
I8
tp3503
a(I23
I16
I8
tp3504
a(I23
I17
I8
tp3505
a(I23
I18
I8
tp3506
a(I23
I20
I8
tp3507
a(I23
I22
I8
tp3508
a(I23
I23
I8
tp3509
a(I24
I1
I8
tp3510
a(I24
I3
I8
tp3511
a(I24
I4
I8
tp3512
a(I24
I5
I8
tp3513
a(I24
I6
I8
tp3514
a(I24
I7
I8
tp3515
a(I24
I8
I8
tp3516
a(I24
I9
I8
tp3517
a(I24
I10
I8
tp3518
a(I24
I12
I8
tp3519
a(I24
I13
I8
tp3520
a(I24
I14
I8
tp3521
a(I24
I15
I8
tp3522
a(I24
I16
I8
tp3523
a(I24
I18
I8
tp3524
a(I24
I19
I8
tp3525
a(I25
I0
I8
tp3526
a(I25
I3
I8
tp3527
a(I25
I4
I8
tp3528
a(I25
I5
I8
tp3529
a(I25
I6
I8
tp3530
a(I25
I7
I8
tp3531
a(I25
I8
I8
tp3532
a(I25
I9
I8
tp3533
a(I25
I10
I8
tp3534
a(I26
I2
I8
tp3535
a(I26
I3
I8
tp3536
a(I26
I4
I8
tp3537
a(I26
I5
I8
tp3538
a(I26
I6
I8
tp3539
a(I26
I7
I8
tp3540
a(I26
I8
I8
tp3541
a(I26
I9
I8
tp3542
a(I27
I1
I8
tp3543
a(I27
I2
I8
tp3544
a(I27
I3
I8
tp3545
a(I27
I4
I8
tp3546
a(I27
I5
I8
tp3547
a(I27
I6
I8
tp3548
a(I27
I7
I8
tp3549
a(I27
I8
I8
tp3550
a(I28
I0
I8
tp3551
a(I28
I1
I8
tp3552
a(I28
I2
I8
tp3553
a(I28
I3
I8
tp3554
a(I28
I4
I8
tp3555
a(I28
I5
I8
tp3556
a(I28
I7
I8
tp3557
a(I29
I33
I8
tp3558
a(I36
I1
I8
tp3559
a(I36
I16
I8
tp3560
a(I36
I21
I8
tp3561
a(I37
I46
I8
tp3562
a(I37
I62
I8
tp3563
a(I37
I63
I8
tp3564
a(I37
I64
I8
tp3565
a(I37
I65
I8
tp3566
a(I37
I66
I8
tp3567
a(I37
I67
I8
tp3568
a(I37
I68
I8
tp3569
a(I37
I69
I8
tp3570
a(I37
I70
I8
tp3571
a(I37
I71
I8
tp3572
a(I37
I72
I8
tp3573
a(I37
I73
I8
tp3574
a(I37
I74
I8
tp3575
a(I37
I75
I8
tp3576
a(I37
I76
I8
tp3577
a(I37
I77
I8
tp3578
a(I37
I78
I8
tp3579
a(I37
I79
I8
tp3580
a(I37
I80
I8
tp3581
a(I37
I93
I8
tp3582
a(I37
I98
I8
tp3583
a(I38
I19
I8
tp3584
a(I38
I20
I8
tp3585
a(I38
I21
I8
tp3586
a(I38
I22
I8
tp3587
a(I38
I29
I8
tp3588
a(I38
I30
I8
tp3589
a(I38
I31
I8
tp3590
a(I38
I32
I8
tp3591
a(I38
I33
I8
tp3592
a(I38
I52
I8
tp3593
a(I39
I33
I8
tp3594
a(I39
I52
I8
tp3595
a(I39
I55
I8
tp3596
a(I41
I34
I8
tp3597
a(I41
I35
I8
tp3598
a(I0
I2
I9
tp3599
a(I0
I62
I9
tp3600
a(I1
I1
I9
tp3601
a(I1
I27
I9
tp3602
a(I1
I28
I9
tp3603
a(I1
I29
I9
tp3604
a(I1
I41
I9
tp3605
a(I1
I59
I9
tp3606
a(I2
I16
I9
tp3607
a(I2
I17
I9
tp3608
a(I2
I19
I9
tp3609
a(I2
I21
I9
tp3610
a(I2
I22
I9
tp3611
a(I2
I53
I9
tp3612
a(I2
I55
I9
tp3613
a(I2
I57
I9
tp3614
a(I2
I95
I9
tp3615
a(I2
I97
I9
tp3616
a(I2
I99
I9
tp3617
a(I7
I11
I9
tp3618
a(I9
I11
I9
tp3619
a(I9
I12
I9
tp3620
a(I9
I13
I9
tp3621
a(I9
I14
I9
tp3622
a(I9
I15
I9
tp3623
a(I9
I16
I9
tp3624
a(I9
I18
I9
tp3625
a(I9
I19
I9
tp3626
a(I9
I20
I9
tp3627
a(I9
I21
I9
tp3628
a(I9
I22
I9
tp3629
a(I9
I23
I9
tp3630
a(I9
I24
I9
tp3631
a(I9
I26
I9
tp3632
a(I9
I27
I9
tp3633
a(I10
I11
I9
tp3634
a(I10
I12
I9
tp3635
a(I10
I13
I9
tp3636
a(I10
I14
I9
tp3637
a(I10
I16
I9
tp3638
a(I10
I19
I9
tp3639
a(I10
I20
I9
tp3640
a(I10
I21
I9
tp3641
a(I10
I22
I9
tp3642
a(I10
I23
I9
tp3643
a(I10
I24
I9
tp3644
a(I10
I25
I9
tp3645
a(I10
I27
I9
tp3646
a(I10
I30
I9
tp3647
a(I11
I1
I9
tp3648
a(I11
I11
I9
tp3649
a(I11
I12
I9
tp3650
a(I11
I13
I9
tp3651
a(I11
I14
I9
tp3652
a(I11
I15
I9
tp3653
a(I11
I16
I9
tp3654
a(I11
I17
I9
tp3655
a(I11
I19
I9
tp3656
a(I11
I20
I9
tp3657
a(I11
I21
I9
tp3658
a(I11
I22
I9
tp3659
a(I11
I23
I9
tp3660
a(I11
I24
I9
tp3661
a(I11
I25
I9
tp3662
a(I11
I26
I9
tp3663
a(I11
I27
I9
tp3664
a(I12
I3
I9
tp3665
a(I12
I11
I9
tp3666
a(I12
I12
I9
tp3667
a(I12
I13
I9
tp3668
a(I12
I14
I9
tp3669
a(I12
I15
I9
tp3670
a(I12
I16
I9
tp3671
a(I12
I17
I9
tp3672
a(I12
I18
I9
tp3673
a(I12
I19
I9
tp3674
a(I12
I20
I9
tp3675
a(I12
I21
I9
tp3676
a(I12
I22
I9
tp3677
a(I12
I23
I9
tp3678
a(I12
I24
I9
tp3679
a(I12
I25
I9
tp3680
a(I12
I26
I9
tp3681
a(I12
I27
I9
tp3682
a(I12
I28
I9
tp3683
a(I13
I0
I9
tp3684
a(I13
I10
I9
tp3685
a(I13
I11
I9
tp3686
a(I13
I12
I9
tp3687
a(I13
I13
I9
tp3688
a(I13
I14
I9
tp3689
a(I13
I15
I9
tp3690
a(I13
I17
I9
tp3691
a(I13
I18
I9
tp3692
a(I13
I19
I9
tp3693
a(I13
I20
I9
tp3694
a(I13
I21
I9
tp3695
a(I13
I22
I9
tp3696
a(I13
I23
I9
tp3697
a(I13
I25
I9
tp3698
a(I13
I26
I9
tp3699
a(I13
I28
I9
tp3700
a(I13
I30
I9
tp3701
a(I13
I31
I9
tp3702
a(I14
I0
I9
tp3703
a(I14
I1
I9
tp3704
a(I14
I7
I9
tp3705
a(I14
I9
I9
tp3706
a(I14
I10
I9
tp3707
a(I14
I11
I9
tp3708
a(I14
I12
I9
tp3709
a(I14
I13
I9
tp3710
a(I14
I14
I9
tp3711
a(I14
I15
I9
tp3712
a(I14
I16
I9
tp3713
a(I14
I17
I9
tp3714
a(I14
I18
I9
tp3715
a(I14
I19
I9
tp3716
a(I14
I21
I9
tp3717
a(I14
I22
I9
tp3718
a(I14
I23
I9
tp3719
a(I14
I24
I9
tp3720
a(I14
I25
I9
tp3721
a(I14
I26
I9
tp3722
a(I14
I27
I9
tp3723
a(I14
I28
I9
tp3724
a(I14
I29
I9
tp3725
a(I14
I31
I9
tp3726
a(I14
I32
I9
tp3727
a(I15
I0
I9
tp3728
a(I15
I1
I9
tp3729
a(I15
I2
I9
tp3730
a(I15
I8
I9
tp3731
a(I15
I9
I9
tp3732
a(I15
I10
I9
tp3733
a(I15
I11
I9
tp3734
a(I15
I12
I9
tp3735
a(I15
I13
I9
tp3736
a(I15
I14
I9
tp3737
a(I15
I15
I9
tp3738
a(I15
I16
I9
tp3739
a(I15
I18
I9
tp3740
a(I15
I19
I9
tp3741
a(I15
I20
I9
tp3742
a(I15
I21
I9
tp3743
a(I15
I22
I9
tp3744
a(I15
I23
I9
tp3745
a(I15
I24
I9
tp3746
a(I15
I25
I9
tp3747
a(I15
I32
I9
tp3748
a(I16
I0
I9
tp3749
a(I16
I1
I9
tp3750
a(I16
I8
I9
tp3751
a(I16
I9
I9
tp3752
a(I16
I10
I9
tp3753
a(I16
I11
I9
tp3754
a(I16
I12
I9
tp3755
a(I16
I13
I9
tp3756
a(I16
I14
I9
tp3757
a(I16
I15
I9
tp3758
a(I16
I17
I9
tp3759
a(I16
I18
I9
tp3760
a(I16
I19
I9
tp3761
a(I16
I20
I9
tp3762
a(I16
I21
I9
tp3763
a(I16
I22
I9
tp3764
a(I16
I24
I9
tp3765
a(I16
I27
I9
tp3766
a(I17
I1
I9
tp3767
a(I17
I2
I9
tp3768
a(I17
I7
I9
tp3769
a(I17
I8
I9
tp3770
a(I17
I9
I9
tp3771
a(I17
I10
I9
tp3772
a(I17
I11
I9
tp3773
a(I17
I12
I9
tp3774
a(I17
I13
I9
tp3775
a(I17
I14
I9
tp3776
a(I17
I15
I9
tp3777
a(I17
I17
I9
tp3778
a(I17
I18
I9
tp3779
a(I17
I19
I9
tp3780
a(I17
I20
I9
tp3781
a(I17
I21
I9
tp3782
a(I17
I22
I9
tp3783
a(I17
I23
I9
tp3784
a(I17
I24
I9
tp3785
a(I17
I25
I9
tp3786
a(I17
I26
I9
tp3787
a(I17
I27
I9
tp3788
a(I17
I32
I9
tp3789
a(I18
I0
I9
tp3790
a(I18
I1
I9
tp3791
a(I18
I4
I9
tp3792
a(I18
I7
I9
tp3793
a(I18
I8
I9
tp3794
a(I18
I9
I9
tp3795
a(I18
I10
I9
tp3796
a(I18
I11
I9
tp3797
a(I18
I12
I9
tp3798
a(I18
I13
I9
tp3799
a(I18
I14
I9
tp3800
a(I18
I15
I9
tp3801
a(I18
I16
I9
tp3802
a(I18
I17
I9
tp3803
a(I18
I18
I9
tp3804
a(I18
I19
I9
tp3805
a(I18
I20
I9
tp3806
a(I18
I21
I9
tp3807
a(I18
I22
I9
tp3808
a(I18
I23
I9
tp3809
a(I18
I24
I9
tp3810
a(I18
I25
I9
tp3811
a(I18
I26
I9
tp3812
a(I18
I27
I9
tp3813
a(I18
I28
I9
tp3814
a(I18
I29
I9
tp3815
a(I18
I30
I9
tp3816
a(I18
I32
I9
tp3817
a(I19
I0
I9
tp3818
a(I19
I1
I9
tp3819
a(I19
I2
I9
tp3820
a(I19
I7
I9
tp3821
a(I19
I8
I9
tp3822
a(I19
I9
I9
tp3823
a(I19
I10
I9
tp3824
a(I19
I11
I9
tp3825
a(I19
I12
I9
tp3826
a(I19
I13
I9
tp3827
a(I19
I14
I9
tp3828
a(I19
I15
I9
tp3829
a(I19
I16
I9
tp3830
a(I19
I17
I9
tp3831
a(I19
I18
I9
tp3832
a(I19
I19
I9
tp3833
a(I19
I20
I9
tp3834
a(I19
I22
I9
tp3835
a(I19
I23
I9
tp3836
a(I19
I24
I9
tp3837
a(I19
I25
I9
tp3838
a(I19
I26
I9
tp3839
a(I19
I27
I9
tp3840
a(I19
I28
I9
tp3841
a(I20
I1
I9
tp3842
a(I20
I2
I9
tp3843
a(I20
I3
I9
tp3844
a(I20
I5
I9
tp3845
a(I20
I6
I9
tp3846
a(I20
I7
I9
tp3847
a(I20
I8
I9
tp3848
a(I20
I9
I9
tp3849
a(I20
I10
I9
tp3850
a(I20
I11
I9
tp3851
a(I20
I12
I9
tp3852
a(I20
I13
I9
tp3853
a(I20
I14
I9
tp3854
a(I20
I15
I9
tp3855
a(I20
I16
I9
tp3856
a(I20
I19
I9
tp3857
a(I20
I20
I9
tp3858
a(I20
I21
I9
tp3859
a(I20
I22
I9
tp3860
a(I20
I23
I9
tp3861
a(I20
I24
I9
tp3862
a(I20
I25
I9
tp3863
a(I20
I28
I9
tp3864
a(I20
I29
I9
tp3865
a(I20
I30
I9
tp3866
a(I21
I0
I9
tp3867
a(I21
I1
I9
tp3868
a(I21
I2
I9
tp3869
a(I21
I3
I9
tp3870
a(I21
I8
I9
tp3871
a(I21
I9
I9
tp3872
a(I21
I10
I9
tp3873
a(I21
I11
I9
tp3874
a(I21
I12
I9
tp3875
a(I21
I13
I9
tp3876
a(I21
I14
I9
tp3877
a(I21
I15
I9
tp3878
a(I21
I16
I9
tp3879
a(I21
I17
I9
tp3880
a(I21
I18
I9
tp3881
a(I21
I19
I9
tp3882
a(I21
I20
I9
tp3883
a(I21
I21
I9
tp3884
a(I21
I22
I9
tp3885
a(I21
I23
I9
tp3886
a(I21
I24
I9
tp3887
a(I21
I25
I9
tp3888
a(I21
I27
I9
tp3889
a(I21
I29
I9
tp3890
a(I21
I30
I9
tp3891
a(I21
I31
I9
tp3892
a(I22
I0
I9
tp3893
a(I22
I1
I9
tp3894
a(I22
I2
I9
tp3895
a(I22
I4
I9
tp3896
a(I22
I8
I9
tp3897
a(I22
I9
I9
tp3898
a(I22
I10
I9
tp3899
a(I22
I11
I9
tp3900
a(I22
I12
I9
tp3901
a(I22
I13
I9
tp3902
a(I22
I14
I9
tp3903
a(I22
I15
I9
tp3904
a(I22
I16
I9
tp3905
a(I22
I18
I9
tp3906
a(I22
I19
I9
tp3907
a(I22
I20
I9
tp3908
a(I22
I21
I9
tp3909
a(I22
I22
I9
tp3910
a(I22
I24
I9
tp3911
a(I22
I25
I9
tp3912
a(I22
I26
I9
tp3913
a(I22
I29
I9
tp3914
a(I23
I2
I9
tp3915
a(I23
I4
I9
tp3916
a(I23
I8
I9
tp3917
a(I23
I9
I9
tp3918
a(I23
I10
I9
tp3919
a(I23
I11
I9
tp3920
a(I23
I12
I9
tp3921
a(I23
I13
I9
tp3922
a(I23
I14
I9
tp3923
a(I23
I15
I9
tp3924
a(I23
I16
I9
tp3925
a(I23
I17
I9
tp3926
a(I23
I18
I9
tp3927
a(I23
I20
I9
tp3928
a(I23
I21
I9
tp3929
a(I23
I22
I9
tp3930
a(I23
I23
I9
tp3931
a(I23
I24
I9
tp3932
a(I23
I25
I9
tp3933
a(I23
I27
I9
tp3934
a(I23
I30
I9
tp3935
a(I24
I1
I9
tp3936
a(I24
I2
I9
tp3937
a(I24
I3
I9
tp3938
a(I24
I7
I9
tp3939
a(I24
I8
I9
tp3940
a(I24
I9
I9
tp3941
a(I24
I10
I9
tp3942
a(I24
I11
I9
tp3943
a(I24
I12
I9
tp3944
a(I24
I13
I9
tp3945
a(I24
I14
I9
tp3946
a(I24
I15
I9
tp3947
a(I24
I16
I9
tp3948
a(I25
I0
I9
tp3949
a(I25
I3
I9
tp3950
a(I25
I5
I9
tp3951
a(I25
I7
I9
tp3952
a(I25
I8
I9
tp3953
a(I25
I9
I9
tp3954
a(I25
I10
I9
tp3955
a(I25
I11
I9
tp3956
a(I25
I12
I9
tp3957
a(I25
I13
I9
tp3958
a(I25
I14
I9
tp3959
a(I25
I15
I9
tp3960
a(I25
I19
I9
tp3961
a(I26
I0
I9
tp3962
a(I26
I3
I9
tp3963
a(I26
I8
I9
tp3964
a(I26
I9
I9
tp3965
a(I26
I10
I9
tp3966
a(I26
I11
I9
tp3967
a(I26
I12
I9
tp3968
a(I26
I13
I9
tp3969
a(I26
I14
I9
tp3970
a(I27
I6
I9
tp3971
a(I27
I7
I9
tp3972
a(I27
I8
I9
tp3973
a(I27
I9
I9
tp3974
a(I27
I10
I9
tp3975
a(I27
I11
I9
tp3976
a(I27
I12
I9
tp3977
a(I27
I13
I9
tp3978
a(I28
I5
I9
tp3979
a(I28
I6
I9
tp3980
a(I28
I7
I9
tp3981
a(I28
I9
I9
tp3982
a(I28
I12
I9
tp3983
a(I28
I13
I9
tp3984
a(I29
I3
I9
tp3985
a(I29
I4
I9
tp3986
a(I29
I6
I9
tp3987
a(I29
I11
I9
tp3988
a(I32
I0
I9
tp3989
a(I32
I1
I9
tp3990
a(I32
I2
I9
tp3991
a(I33
I4
I9
tp3992
a(I34
I3
I9
tp3993
a(I34
I18
I9
tp3994
a(I34
I19
I9
tp3995
a(I35
I20
I9
tp3996
a(I35
I21
I9
tp3997
a(I36
I9
I9
tp3998
a(I36
I22
I9
tp3999
a(I36
I23
I9
tp4000
a(I36
I24
I9
tp4001
a(I36
I99
I9
tp4002
a(I37
I25
I9
tp4003
a(I37
I26
I9
tp4004
a(I37
I27
I9
tp4005
a(I37
I36
I9
tp4006
a(I37
I37
I9
tp4007
a(I37
I55
I9
tp4008
a(I37
I68
I9
tp4009
a(I37
I70
I9
tp4010
a(I37
I72
I9
tp4011
a(I37
I74
I9
tp4012
a(I37
I76
I9
tp4013
a(I37
I78
I9
tp4014
a(I37
I80
I9
tp4015
a(I37
I82
I9
tp4016
a(I37
I84
I9
tp4017
a(I37
I86
I9
tp4018
a(I37
I91
I9
tp4019
a(I38
I38
I9
tp4020
a(I38
I57
I9
tp4021
a(I39
I37
I9
tp4022
a(I39
I39
I9
tp4023
a(I39
I60
I9
tp4024
a(I39
I62
I9
tp4025
a(I40
I39
I9
tp4026
a(I0
I0
I10
tp4027
a(I0
I29
I10
tp4028
a(I0
I61
I10
tp4029
a(I1
I20
I10
tp4030
a(I1
I58
I10
tp4031
a(I2
I4
I10
tp4032
a(I8
I12
I10
tp4033
a(I8
I14
I10
tp4034
a(I8
I16
I10
tp4035
a(I8
I17
I10
tp4036
a(I8
I18
I10
tp4037
a(I8
I19
I10
tp4038
a(I8
I20
I10
tp4039
a(I8
I22
I10
tp4040
a(I8
I24
I10
tp4041
a(I8
I25
I10
tp4042
a(I8
I28
I10
tp4043
a(I9
I6
I10
tp4044
a(I9
I7
I10
tp4045
a(I9
I9
I10
tp4046
a(I9
I10
I10
tp4047
a(I9
I11
I10
tp4048
a(I9
I12
I10
tp4049
a(I9
I13
I10
tp4050
a(I9
I14
I10
tp4051
a(I9
I15
I10
tp4052
a(I9
I16
I10
tp4053
a(I9
I17
I10
tp4054
a(I9
I18
I10
tp4055
a(I9
I19
I10
tp4056
a(I9
I20
I10
tp4057
a(I9
I21
I10
tp4058
a(I9
I22
I10
tp4059
a(I9
I23
I10
tp4060
a(I9
I25
I10
tp4061
a(I9
I27
I10
tp4062
a(I9
I29
I10
tp4063
a(I10
I9
I10
tp4064
a(I10
I10
I10
tp4065
a(I10
I11
I10
tp4066
a(I10
I12
I10
tp4067
a(I10
I13
I10
tp4068
a(I10
I14
I10
tp4069
a(I10
I15
I10
tp4070
a(I10
I16
I10
tp4071
a(I10
I17
I10
tp4072
a(I10
I18
I10
tp4073
a(I10
I20
I10
tp4074
a(I10
I21
I10
tp4075
a(I10
I22
I10
tp4076
a(I10
I23
I10
tp4077
a(I10
I24
I10
tp4078
a(I10
I25
I10
tp4079
a(I10
I26
I10
tp4080
a(I10
I28
I10
tp4081
a(I10
I30
I10
tp4082
a(I11
I9
I10
tp4083
a(I11
I10
I10
tp4084
a(I11
I11
I10
tp4085
a(I11
I13
I10
tp4086
a(I11
I14
I10
tp4087
a(I11
I15
I10
tp4088
a(I11
I16
I10
tp4089
a(I11
I17
I10
tp4090
a(I11
I19
I10
tp4091
a(I11
I21
I10
tp4092
a(I11
I22
I10
tp4093
a(I11
I23
I10
tp4094
a(I11
I25
I10
tp4095
a(I11
I26
I10
tp4096
a(I11
I27
I10
tp4097
a(I11
I28
I10
tp4098
a(I11
I29
I10
tp4099
a(I12
I9
I10
tp4100
a(I12
I11
I10
tp4101
a(I12
I12
I10
tp4102
a(I12
I13
I10
tp4103
a(I12
I14
I10
tp4104
a(I12
I15
I10
tp4105
a(I12
I16
I10
tp4106
a(I12
I17
I10
tp4107
a(I12
I20
I10
tp4108
a(I12
I21
I10
tp4109
a(I12
I22
I10
tp4110
a(I12
I23
I10
tp4111
a(I12
I24
I10
tp4112
a(I12
I26
I10
tp4113
a(I12
I27
I10
tp4114
a(I12
I29
I10
tp4115
a(I12
I30
I10
tp4116
a(I13
I0
I10
tp4117
a(I13
I6
I10
tp4118
a(I13
I8
I10
tp4119
a(I13
I9
I10
tp4120
a(I13
I10
I10
tp4121
a(I13
I11
I10
tp4122
a(I13
I12
I10
tp4123
a(I13
I13
I10
tp4124
a(I13
I14
I10
tp4125
a(I13
I15
I10
tp4126
a(I13
I16
I10
tp4127
a(I13
I17
I10
tp4128
a(I13
I18
I10
tp4129
a(I13
I20
I10
tp4130
a(I13
I21
I10
tp4131
a(I13
I24
I10
tp4132
a(I13
I26
I10
tp4133
a(I13
I30
I10
tp4134
a(I14
I0
I10
tp4135
a(I14
I6
I10
tp4136
a(I14
I7
I10
tp4137
a(I14
I8
I10
tp4138
a(I14
I9
I10
tp4139
a(I14
I11
I10
tp4140
a(I14
I12
I10
tp4141
a(I14
I13
I10
tp4142
a(I14
I14
I10
tp4143
a(I14
I15
I10
tp4144
a(I14
I16
I10
tp4145
a(I14
I17
I10
tp4146
a(I14
I18
I10
tp4147
a(I14
I19
I10
tp4148
a(I14
I20
I10
tp4149
a(I14
I21
I10
tp4150
a(I14
I22
I10
tp4151
a(I14
I24
I10
tp4152
a(I14
I25
I10
tp4153
a(I14
I26
I10
tp4154
a(I15
I6
I10
tp4155
a(I15
I7
I10
tp4156
a(I15
I8
I10
tp4157
a(I15
I9
I10
tp4158
a(I15
I10
I10
tp4159
a(I15
I11
I10
tp4160
a(I15
I12
I10
tp4161
a(I15
I13
I10
tp4162
a(I15
I14
I10
tp4163
a(I15
I15
I10
tp4164
a(I15
I16
I10
tp4165
a(I15
I17
I10
tp4166
a(I15
I18
I10
tp4167
a(I15
I19
I10
tp4168
a(I15
I21
I10
tp4169
a(I15
I25
I10
tp4170
a(I16
I5
I10
tp4171
a(I16
I7
I10
tp4172
a(I16
I8
I10
tp4173
a(I16
I9
I10
tp4174
a(I16
I10
I10
tp4175
a(I16
I11
I10
tp4176
a(I16
I12
I10
tp4177
a(I16
I13
I10
tp4178
a(I16
I14
I10
tp4179
a(I16
I15
I10
tp4180
a(I16
I16
I10
tp4181
a(I16
I17
I10
tp4182
a(I16
I18
I10
tp4183
a(I16
I19
I10
tp4184
a(I16
I20
I10
tp4185
a(I16
I21
I10
tp4186
a(I16
I22
I10
tp4187
a(I16
I23
I10
tp4188
a(I16
I24
I10
tp4189
a(I16
I25
I10
tp4190
a(I16
I26
I10
tp4191
a(I17
I0
I10
tp4192
a(I17
I1
I10
tp4193
a(I17
I6
I10
tp4194
a(I17
I7
I10
tp4195
a(I17
I8
I10
tp4196
a(I17
I9
I10
tp4197
a(I17
I10
I10
tp4198
a(I17
I11
I10
tp4199
a(I17
I12
I10
tp4200
a(I17
I13
I10
tp4201
a(I17
I14
I10
tp4202
a(I17
I15
I10
tp4203
a(I17
I16
I10
tp4204
a(I17
I19
I10
tp4205
a(I17
I20
I10
tp4206
a(I17
I23
I10
tp4207
a(I17
I24
I10
tp4208
a(I17
I25
I10
tp4209
a(I17
I26
I10
tp4210
a(I17
I27
I10
tp4211
a(I17
I30
I10
tp4212
a(I18
I0
I10
tp4213
a(I18
I7
I10
tp4214
a(I18
I8
I10
tp4215
a(I18
I9
I10
tp4216
a(I18
I10
I10
tp4217
a(I18
I11
I10
tp4218
a(I18
I12
I10
tp4219
a(I18
I13
I10
tp4220
a(I18
I14
I10
tp4221
a(I18
I16
I10
tp4222
a(I18
I17
I10
tp4223
a(I18
I19
I10
tp4224
a(I18
I20
I10
tp4225
a(I18
I21
I10
tp4226
a(I18
I22
I10
tp4227
a(I18
I23
I10
tp4228
a(I18
I24
I10
tp4229
a(I18
I25
I10
tp4230
a(I18
I26
I10
tp4231
a(I18
I27
I10
tp4232
a(I19
I0
I10
tp4233
a(I19
I1
I10
tp4234
a(I19
I4
I10
tp4235
a(I19
I7
I10
tp4236
a(I19
I8
I10
tp4237
a(I19
I9
I10
tp4238
a(I19
I10
I10
tp4239
a(I19
I11
I10
tp4240
a(I19
I12
I10
tp4241
a(I19
I13
I10
tp4242
a(I19
I14
I10
tp4243
a(I19
I15
I10
tp4244
a(I19
I16
I10
tp4245
a(I19
I17
I10
tp4246
a(I19
I18
I10
tp4247
a(I19
I19
I10
tp4248
a(I19
I20
I10
tp4249
a(I19
I21
I10
tp4250
a(I19
I22
I10
tp4251
a(I19
I23
I10
tp4252
a(I19
I25
I10
tp4253
a(I19
I26
I10
tp4254
a(I19
I27
I10
tp4255
a(I19
I29
I10
tp4256
a(I19
I30
I10
tp4257
a(I20
I0
I10
tp4258
a(I20
I2
I10
tp4259
a(I20
I5
I10
tp4260
a(I20
I6
I10
tp4261
a(I20
I7
I10
tp4262
a(I20
I8
I10
tp4263
a(I20
I9
I10
tp4264
a(I20
I10
I10
tp4265
a(I20
I11
I10
tp4266
a(I20
I12
I10
tp4267
a(I20
I13
I10
tp4268
a(I20
I14
I10
tp4269
a(I20
I15
I10
tp4270
a(I20
I16
I10
tp4271
a(I20
I17
I10
tp4272
a(I20
I18
I10
tp4273
a(I20
I19
I10
tp4274
a(I20
I20
I10
tp4275
a(I20
I21
I10
tp4276
a(I20
I22
I10
tp4277
a(I20
I23
I10
tp4278
a(I20
I24
I10
tp4279
a(I20
I25
I10
tp4280
a(I20
I26
I10
tp4281
a(I20
I27
I10
tp4282
a(I20
I29
I10
tp4283
a(I20
I30
I10
tp4284
a(I21
I0
I10
tp4285
a(I21
I1
I10
tp4286
a(I21
I6
I10
tp4287
a(I21
I7
I10
tp4288
a(I21
I8
I10
tp4289
a(I21
I9
I10
tp4290
a(I21
I10
I10
tp4291
a(I21
I11
I10
tp4292
a(I21
I12
I10
tp4293
a(I21
I13
I10
tp4294
a(I21
I14
I10
tp4295
a(I21
I15
I10
tp4296
a(I21
I16
I10
tp4297
a(I21
I17
I10
tp4298
a(I21
I18
I10
tp4299
a(I21
I19
I10
tp4300
a(I21
I20
I10
tp4301
a(I21
I21
I10
tp4302
a(I21
I22
I10
tp4303
a(I21
I23
I10
tp4304
a(I21
I24
I10
tp4305
a(I21
I26
I10
tp4306
a(I21
I27
I10
tp4307
a(I22
I0
I10
tp4308
a(I22
I1
I10
tp4309
a(I22
I2
I10
tp4310
a(I22
I3
I10
tp4311
a(I22
I6
I10
tp4312
a(I22
I7
I10
tp4313
a(I22
I8
I10
tp4314
a(I22
I9
I10
tp4315
a(I22
I10
I10
tp4316
a(I22
I11
I10
tp4317
a(I22
I12
I10
tp4318
a(I22
I13
I10
tp4319
a(I22
I14
I10
tp4320
a(I22
I15
I10
tp4321
a(I22
I17
I10
tp4322
a(I22
I19
I10
tp4323
a(I22
I20
I10
tp4324
a(I22
I21
I10
tp4325
a(I22
I22
I10
tp4326
a(I22
I23
I10
tp4327
a(I22
I27
I10
tp4328
a(I23
I1
I10
tp4329
a(I23
I2
I10
tp4330
a(I23
I5
I10
tp4331
a(I23
I6
I10
tp4332
a(I23
I7
I10
tp4333
a(I23
I8
I10
tp4334
a(I23
I9
I10
tp4335
a(I23
I10
I10
tp4336
a(I23
I11
I10
tp4337
a(I23
I12
I10
tp4338
a(I23
I13
I10
tp4339
a(I23
I14
I10
tp4340
a(I24
I1
I10
tp4341
a(I24
I7
I10
tp4342
a(I24
I8
I10
tp4343
a(I24
I9
I10
tp4344
a(I24
I10
I10
tp4345
a(I24
I11
I10
tp4346
a(I24
I12
I10
tp4347
a(I24
I13
I10
tp4348
a(I24
I14
I10
tp4349
a(I25
I0
I10
tp4350
a(I25
I5
I10
tp4351
a(I25
I6
I10
tp4352
a(I25
I7
I10
tp4353
a(I25
I8
I10
tp4354
a(I25
I9
I10
tp4355
a(I25
I10
I10
tp4356
a(I25
I11
I10
tp4357
a(I25
I13
I10
tp4358
a(I26
I1
I10
tp4359
a(I26
I3
I10
tp4360
a(I26
I5
I10
tp4361
a(I26
I6
I10
tp4362
a(I26
I8
I10
tp4363
a(I26
I10
I10
tp4364
a(I26
I11
I10
tp4365
a(I26
I12
I10
tp4366
a(I27
I4
I10
tp4367
a(I27
I5
I10
tp4368
a(I27
I7
I10
tp4369
a(I27
I9
I10
tp4370
a(I27
I10
I10
tp4371
a(I27
I11
I10
tp4372
a(I30
I0
I10
tp4373
a(I30
I7
I10
tp4374
a(I31
I0
I10
tp4375
a(I32
I1
I10
tp4376
a(I32
I3
I10
tp4377
a(I32
I5
I10
tp4378
a(I33
I2
I10
tp4379
a(I33
I3
I10
tp4380
a(I33
I19
I10
tp4381
a(I34
I4
I10
tp4382
a(I34
I20
I10
tp4383
a(I35
I23
I10
tp4384
a(I35
I96
I10
tp4385
a(I36
I23
I10
tp4386
a(I36
I24
I10
tp4387
a(I36
I34
I10
tp4388
a(I36
I35
I10
tp4389
a(I36
I54
I10
tp4390
a(I36
I98
I10
tp4391
a(I37
I36
I10
tp4392
a(I37
I37
I10
tp4393
a(I38
I36
I10
tp4394
a(I38
I37
I10
tp4395
a(I39
I39
I10
tp4396
a(I0
I25
I11
tp4397
a(I0
I29
I11
tp4398
a(I0
I97
I11
tp4399
a(I1
I24
I11
tp4400
a(I1
I43
I11
tp4401
a(I1
I45
I11
tp4402
a(I1
I94
I11
tp4403
a(I2
I11
I11
tp4404
a(I2
I13
I11
tp4405
a(I2
I14
I11
tp4406
a(I2
I16
I11
tp4407
a(I2
I17
I11
tp4408
a(I2
I43
I11
tp4409
a(I2
I48
I11
tp4410
a(I2
I49
I11
tp4411
a(I2
I51
I11
tp4412
a(I2
I53
I11
tp4413
a(I2
I90
I11
tp4414
a(I2
I91
I11
tp4415
a(I2
I92
I11
tp4416
a(I2
I93
I11
tp4417
a(I2
I94
I11
tp4418
a(I2
I95
I11
tp4419
a(I2
I96
I11
tp4420
a(I2
I97
I11
tp4421
a(I2
I98
I11
tp4422
a(I2
I99
I11
tp4423
a(I3
I12
I11
tp4424
a(I8
I6
I11
tp4425
a(I8
I7
I11
tp4426
a(I8
I8
I11
tp4427
a(I8
I9
I11
tp4428
a(I8
I10
I11
tp4429
a(I8
I11
I11
tp4430
a(I8
I12
I11
tp4431
a(I8
I13
I11
tp4432
a(I8
I14
I11
tp4433
a(I8
I15
I11
tp4434
a(I8
I16
I11
tp4435
a(I9
I6
I11
tp4436
a(I9
I7
I11
tp4437
a(I9
I9
I11
tp4438
a(I9
I10
I11
tp4439
a(I9
I11
I11
tp4440
a(I9
I13
I11
tp4441
a(I9
I14
I11
tp4442
a(I9
I16
I11
tp4443
a(I9
I17
I11
tp4444
a(I9
I18
I11
tp4445
a(I9
I20
I11
tp4446
a(I9
I21
I11
tp4447
a(I10
I6
I11
tp4448
a(I10
I7
I11
tp4449
a(I10
I8
I11
tp4450
a(I10
I9
I11
tp4451
a(I10
I10
I11
tp4452
a(I10
I11
I11
tp4453
a(I10
I12
I11
tp4454
a(I10
I13
I11
tp4455
a(I10
I14
I11
tp4456
a(I10
I15
I11
tp4457
a(I10
I16
I11
tp4458
a(I10
I17
I11
tp4459
a(I10
I18
I11
tp4460
a(I10
I19
I11
tp4461
a(I10
I20
I11
tp4462
a(I10
I22
I11
tp4463
a(I10
I23
I11
tp4464
a(I10
I25
I11
tp4465
a(I11
I6
I11
tp4466
a(I11
I7
I11
tp4467
a(I11
I8
I11
tp4468
a(I11
I9
I11
tp4469
a(I11
I10
I11
tp4470
a(I11
I11
I11
tp4471
a(I11
I12
I11
tp4472
a(I11
I13
I11
tp4473
a(I11
I14
I11
tp4474
a(I11
I15
I11
tp4475
a(I11
I16
I11
tp4476
a(I11
I17
I11
tp4477
a(I11
I18
I11
tp4478
a(I11
I19
I11
tp4479
a(I11
I20
I11
tp4480
a(I11
I21
I11
tp4481
a(I11
I22
I11
tp4482
a(I12
I6
I11
tp4483
a(I12
I7
I11
tp4484
a(I12
I8
I11
tp4485
a(I12
I9
I11
tp4486
a(I12
I10
I11
tp4487
a(I12
I11
I11
tp4488
a(I12
I12
I11
tp4489
a(I12
I13
I11
tp4490
a(I12
I14
I11
tp4491
a(I12
I15
I11
tp4492
a(I12
I16
I11
tp4493
a(I12
I17
I11
tp4494
a(I12
I18
I11
tp4495
a(I12
I19
I11
tp4496
a(I12
I20
I11
tp4497
a(I12
I21
I11
tp4498
a(I12
I22
I11
tp4499
a(I12
I23
I11
tp4500
a(I13
I5
I11
tp4501
a(I13
I6
I11
tp4502
a(I13
I7
I11
tp4503
a(I13
I8
I11
tp4504
a(I13
I9
I11
tp4505
a(I13
I10
I11
tp4506
a(I13
I11
I11
tp4507
a(I13
I13
I11
tp4508
a(I13
I14
I11
tp4509
a(I13
I15
I11
tp4510
a(I13
I16
I11
tp4511
a(I13
I17
I11
tp4512
a(I13
I18
I11
tp4513
a(I13
I19
I11
tp4514
a(I13
I20
I11
tp4515
a(I13
I21
I11
tp4516
a(I13
I22
I11
tp4517
a(I13
I23
I11
tp4518
a(I13
I25
I11
tp4519
a(I13
I26
I11
tp4520
a(I14
I0
I11
tp4521
a(I14
I2
I11
tp4522
a(I14
I4
I11
tp4523
a(I14
I5
I11
tp4524
a(I14
I6
I11
tp4525
a(I14
I7
I11
tp4526
a(I14
I8
I11
tp4527
a(I14
I9
I11
tp4528
a(I14
I10
I11
tp4529
a(I14
I11
I11
tp4530
a(I14
I12
I11
tp4531
a(I14
I13
I11
tp4532
a(I14
I14
I11
tp4533
a(I14
I16
I11
tp4534
a(I14
I17
I11
tp4535
a(I14
I18
I11
tp4536
a(I14
I19
I11
tp4537
a(I14
I20
I11
tp4538
a(I14
I23
I11
tp4539
a(I14
I24
I11
tp4540
a(I14
I26
I11
tp4541
a(I14
I27
I11
tp4542
a(I15
I3
I11
tp4543
a(I15
I4
I11
tp4544
a(I15
I5
I11
tp4545
a(I15
I6
I11
tp4546
a(I15
I7
I11
tp4547
a(I15
I8
I11
tp4548
a(I15
I9
I11
tp4549
a(I15
I10
I11
tp4550
a(I15
I11
I11
tp4551
a(I15
I12
I11
tp4552
a(I15
I13
I11
tp4553
a(I15
I14
I11
tp4554
a(I15
I15
I11
tp4555
a(I15
I16
I11
tp4556
a(I15
I17
I11
tp4557
a(I15
I18
I11
tp4558
a(I15
I19
I11
tp4559
a(I15
I20
I11
tp4560
a(I16
I3
I11
tp4561
a(I16
I4
I11
tp4562
a(I16
I5
I11
tp4563
a(I16
I6
I11
tp4564
a(I16
I7
I11
tp4565
a(I16
I8
I11
tp4566
a(I16
I9
I11
tp4567
a(I16
I10
I11
tp4568
a(I16
I11
I11
tp4569
a(I16
I12
I11
tp4570
a(I16
I13
I11
tp4571
a(I16
I14
I11
tp4572
a(I16
I15
I11
tp4573
a(I16
I16
I11
tp4574
a(I16
I17
I11
tp4575
a(I16
I19
I11
tp4576
a(I16
I20
I11
tp4577
a(I16
I21
I11
tp4578
a(I16
I22
I11
tp4579
a(I17
I2
I11
tp4580
a(I17
I3
I11
tp4581
a(I17
I4
I11
tp4582
a(I17
I5
I11
tp4583
a(I17
I6
I11
tp4584
a(I17
I7
I11
tp4585
a(I17
I8
I11
tp4586
a(I17
I9
I11
tp4587
a(I17
I10
I11
tp4588
a(I17
I11
I11
tp4589
a(I17
I12
I11
tp4590
a(I17
I13
I11
tp4591
a(I17
I14
I11
tp4592
a(I17
I15
I11
tp4593
a(I17
I16
I11
tp4594
a(I17
I17
I11
tp4595
a(I17
I18
I11
tp4596
a(I17
I20
I11
tp4597
a(I17
I21
I11
tp4598
a(I17
I22
I11
tp4599
a(I17
I27
I11
tp4600
a(I18
I2
I11
tp4601
a(I18
I3
I11
tp4602
a(I18
I4
I11
tp4603
a(I18
I5
I11
tp4604
a(I18
I6
I11
tp4605
a(I18
I7
I11
tp4606
a(I18
I8
I11
tp4607
a(I18
I9
I11
tp4608
a(I18
I10
I11
tp4609
a(I18
I11
I11
tp4610
a(I18
I12
I11
tp4611
a(I18
I13
I11
tp4612
a(I18
I14
I11
tp4613
a(I18
I15
I11
tp4614
a(I18
I17
I11
tp4615
a(I18
I18
I11
tp4616
a(I18
I19
I11
tp4617
a(I18
I20
I11
tp4618
a(I18
I21
I11
tp4619
a(I18
I22
I11
tp4620
a(I18
I23
I11
tp4621
a(I18
I24
I11
tp4622
a(I18
I27
I11
tp4623
a(I19
I2
I11
tp4624
a(I19
I3
I11
tp4625
a(I19
I4
I11
tp4626
a(I19
I5
I11
tp4627
a(I19
I6
I11
tp4628
a(I19
I7
I11
tp4629
a(I19
I8
I11
tp4630
a(I19
I9
I11
tp4631
a(I19
I10
I11
tp4632
a(I19
I11
I11
tp4633
a(I19
I12
I11
tp4634
a(I19
I13
I11
tp4635
a(I19
I14
I11
tp4636
a(I19
I15
I11
tp4637
a(I19
I16
I11
tp4638
a(I19
I17
I11
tp4639
a(I19
I18
I11
tp4640
a(I19
I19
I11
tp4641
a(I19
I20
I11
tp4642
a(I19
I21
I11
tp4643
a(I19
I22
I11
tp4644
a(I19
I23
I11
tp4645
a(I20
I0
I11
tp4646
a(I20
I2
I11
tp4647
a(I20
I3
I11
tp4648
a(I20
I4
I11
tp4649
a(I20
I5
I11
tp4650
a(I20
I6
I11
tp4651
a(I20
I7
I11
tp4652
a(I20
I8
I11
tp4653
a(I20
I9
I11
tp4654
a(I20
I10
I11
tp4655
a(I20
I11
I11
tp4656
a(I20
I12
I11
tp4657
a(I20
I13
I11
tp4658
a(I20
I14
I11
tp4659
a(I20
I15
I11
tp4660
a(I20
I16
I11
tp4661
a(I20
I17
I11
tp4662
a(I20
I18
I11
tp4663
a(I20
I20
I11
tp4664
a(I20
I23
I11
tp4665
a(I20
I24
I11
tp4666
a(I20
I25
I11
tp4667
a(I21
I3
I11
tp4668
a(I21
I4
I11
tp4669
a(I21
I5
I11
tp4670
a(I21
I6
I11
tp4671
a(I21
I7
I11
tp4672
a(I21
I8
I11
tp4673
a(I21
I9
I11
tp4674
a(I21
I10
I11
tp4675
a(I21
I11
I11
tp4676
a(I21
I12
I11
tp4677
a(I21
I13
I11
tp4678
a(I21
I14
I11
tp4679
a(I21
I15
I11
tp4680
a(I21
I16
I11
tp4681
a(I21
I17
I11
tp4682
a(I21
I18
I11
tp4683
a(I21
I19
I11
tp4684
a(I21
I20
I11
tp4685
a(I21
I21
I11
tp4686
a(I21
I22
I11
tp4687
a(I21
I24
I11
tp4688
a(I21
I25
I11
tp4689
a(I21
I26
I11
tp4690
a(I22
I3
I11
tp4691
a(I22
I4
I11
tp4692
a(I22
I5
I11
tp4693
a(I22
I6
I11
tp4694
a(I22
I7
I11
tp4695
a(I22
I8
I11
tp4696
a(I22
I9
I11
tp4697
a(I22
I10
I11
tp4698
a(I22
I11
I11
tp4699
a(I22
I12
I11
tp4700
a(I22
I15
I11
tp4701
a(I22
I16
I11
tp4702
a(I22
I17
I11
tp4703
a(I22
I18
I11
tp4704
a(I22
I19
I11
tp4705
a(I22
I20
I11
tp4706
a(I22
I21
I11
tp4707
a(I22
I24
I11
tp4708
a(I23
I3
I11
tp4709
a(I23
I4
I11
tp4710
a(I23
I5
I11
tp4711
a(I23
I6
I11
tp4712
a(I23
I7
I11
tp4713
a(I23
I8
I11
tp4714
a(I23
I9
I11
tp4715
a(I23
I10
I11
tp4716
a(I23
I11
I11
tp4717
a(I23
I12
I11
tp4718
a(I23
I13
I11
tp4719
a(I23
I14
I11
tp4720
a(I23
I15
I11
tp4721
a(I23
I16
I11
tp4722
a(I23
I17
I11
tp4723
a(I23
I18
I11
tp4724
a(I23
I20
I11
tp4725
a(I23
I21
I11
tp4726
a(I23
I22
I11
tp4727
a(I23
I25
I11
tp4728
a(I24
I2
I11
tp4729
a(I24
I3
I11
tp4730
a(I24
I4
I11
tp4731
a(I24
I5
I11
tp4732
a(I24
I6
I11
tp4733
a(I24
I7
I11
tp4734
a(I24
I8
I11
tp4735
a(I24
I9
I11
tp4736
a(I24
I10
I11
tp4737
a(I24
I11
I11
tp4738
a(I24
I12
I11
tp4739
a(I24
I13
I11
tp4740
a(I24
I14
I11
tp4741
a(I24
I15
I11
tp4742
a(I24
I16
I11
tp4743
a(I24
I17
I11
tp4744
a(I24
I18
I11
tp4745
a(I24
I19
I11
tp4746
a(I25
I0
I11
tp4747
a(I25
I2
I11
tp4748
a(I25
I3
I11
tp4749
a(I25
I4
I11
tp4750
a(I25
I5
I11
tp4751
a(I25
I6
I11
tp4752
a(I25
I7
I11
tp4753
a(I25
I8
I11
tp4754
a(I25
I9
I11
tp4755
a(I25
I10
I11
tp4756
a(I26
I3
I11
tp4757
a(I26
I4
I11
tp4758
a(I26
I5
I11
tp4759
a(I26
I6
I11
tp4760
a(I26
I7
I11
tp4761
a(I26
I8
I11
tp4762
a(I26
I9
I11
tp4763
a(I27
I1
I11
tp4764
a(I27
I2
I11
tp4765
a(I27
I3
I11
tp4766
a(I27
I4
I11
tp4767
a(I27
I5
I11
tp4768
a(I27
I6
I11
tp4769
a(I27
I7
I11
tp4770
a(I27
I8
I11
tp4771
a(I28
I1
I11
tp4772
a(I28
I2
I11
tp4773
a(I28
I4
I11
tp4774
a(I28
I7
I11
tp4775
a(I29
I0
I11
tp4776
a(I34
I1
I11
tp4777
a(I35
I15
I11
tp4778
a(I35
I17
I11
tp4779
a.